Archive member included to satisfy reference by file (symbol)

/opt/arm/arm-gnu-toolchain-12.2.rel1-x86_64-arm-none-eabi/bin/../lib/gcc/arm-none-eabi/12.2.1/thumb/v8-m.main+fp/hard/libgcc.a(_aeabi_uldivmod.o)
                              CMakeFiles/freertos_hello.elf.dir/project/sdk/devices/LPC5536/drivers/fsl_clock.c.obj (__aeabi_uldivmod)
/opt/arm/arm-gnu-toolchain-12.2.rel1-x86_64-arm-none-eabi/bin/../lib/gcc/arm-none-eabi/12.2.1/thumb/v8-m.main+fp/hard/libgcc.a(_fixunssfdi.o)
                              CMakeFiles/freertos_hello.elf.dir/project/sdk/devices/LPC5536/drivers/fsl_clock.c.obj (__aeabi_f2ulz)
/opt/arm/arm-gnu-toolchain-12.2.rel1-x86_64-arm-none-eabi/bin/../lib/gcc/arm-none-eabi/12.2.1/thumb/v8-m.main+fp/hard/libgcc.a(_udivmoddi4.o)
                              /opt/arm/arm-gnu-toolchain-12.2.rel1-x86_64-arm-none-eabi/bin/../lib/gcc/arm-none-eabi/12.2.1/thumb/v8-m.main+fp/hard/libgcc.a(_aeabi_uldivmod.o) (__udivmoddi4)
/opt/arm/arm-gnu-toolchain-12.2.rel1-x86_64-arm-none-eabi/bin/../lib/gcc/arm-none-eabi/12.2.1/thumb/v8-m.main+fp/hard/libgcc.a(_arm_muldf3.o)
                              /opt/arm/arm-gnu-toolchain-12.2.rel1-x86_64-arm-none-eabi/bin/../lib/gcc/arm-none-eabi/12.2.1/thumb/v8-m.main+fp/hard/libgcc.a(_fixunssfdi.o) (__aeabi_dmul)
/opt/arm/arm-gnu-toolchain-12.2.rel1-x86_64-arm-none-eabi/bin/../lib/gcc/arm-none-eabi/12.2.1/thumb/v8-m.main+fp/hard/libgcc.a(_dvmd_tls.o)
                              /opt/arm/arm-gnu-toolchain-12.2.rel1-x86_64-arm-none-eabi/bin/../lib/gcc/arm-none-eabi/12.2.1/thumb/v8-m.main+fp/hard/libgcc.a(_aeabi_uldivmod.o) (__aeabi_ldiv0)
/opt/arm/arm-gnu-toolchain-12.2.rel1-x86_64-arm-none-eabi/bin/../lib/gcc/arm-none-eabi/12.2.1/thumb/v8-m.main+fp/hard/libgcc.a(_arm_addsubdf3.o)
                              /opt/arm/arm-gnu-toolchain-12.2.rel1-x86_64-arm-none-eabi/bin/../lib/gcc/arm-none-eabi/12.2.1/thumb/v8-m.main+fp/hard/libgcc.a(_fixunssfdi.o) (__aeabi_dsub)
/opt/arm/arm-gnu-toolchain-12.2.rel1-x86_64-arm-none-eabi/bin/../lib/gcc/arm-none-eabi/12.2.1/thumb/v8-m.main+fp/hard/libgcc.a(_arm_fixunsdfsi.o)
                              /opt/arm/arm-gnu-toolchain-12.2.rel1-x86_64-arm-none-eabi/bin/../lib/gcc/arm-none-eabi/12.2.1/thumb/v8-m.main+fp/hard/libgcc.a(_fixunssfdi.o) (__aeabi_d2uiz)
/opt/arm/arm-gnu-toolchain-12.2.rel1-x86_64-arm-none-eabi/bin/../lib/gcc/arm-none-eabi/12.2.1/../../../../arm-none-eabi/lib/thumb/v8-m.main+fp/hard/libc_nano.a(libc_a-exit.o)
                              /opt/arm/arm-gnu-toolchain-12.2.rel1-x86_64-arm-none-eabi/bin/../lib/gcc/arm-none-eabi/12.2.1/../../../../arm-none-eabi/lib/thumb/v8-m.main+fp/hard/crt0.o (exit)
/opt/arm/arm-gnu-toolchain-12.2.rel1-x86_64-arm-none-eabi/bin/../lib/gcc/arm-none-eabi/12.2.1/../../../../arm-none-eabi/lib/thumb/v8-m.main+fp/hard/libc_nano.a(libc_a-strtoul.o)
                              CMakeFiles/freertos_hello.elf.dir/project/sdk/devices/LPC5536/utilities/str/fsl_str.c.obj (strtoul)
/opt/arm/arm-gnu-toolchain-12.2.rel1-x86_64-arm-none-eabi/bin/../lib/gcc/arm-none-eabi/12.2.1/../../../../arm-none-eabi/lib/thumb/v8-m.main+fp/hard/libc_nano.a(libc_a-init.o)
                              /opt/arm/arm-gnu-toolchain-12.2.rel1-x86_64-arm-none-eabi/bin/../lib/gcc/arm-none-eabi/12.2.1/../../../../arm-none-eabi/lib/thumb/v8-m.main+fp/hard/crt0.o (__libc_init_array)
/opt/arm/arm-gnu-toolchain-12.2.rel1-x86_64-arm-none-eabi/bin/../lib/gcc/arm-none-eabi/12.2.1/../../../../arm-none-eabi/lib/thumb/v8-m.main+fp/hard/libc_nano.a(libc_a-impure.o)
                              /opt/arm/arm-gnu-toolchain-12.2.rel1-x86_64-arm-none-eabi/bin/../lib/gcc/arm-none-eabi/12.2.1/../../../../arm-none-eabi/lib/thumb/v8-m.main+fp/hard/libc_nano.a(libc_a-strtoul.o) (_impure_ptr)
/opt/arm/arm-gnu-toolchain-12.2.rel1-x86_64-arm-none-eabi/bin/../lib/gcc/arm-none-eabi/12.2.1/../../../../arm-none-eabi/lib/thumb/v8-m.main+fp/hard/libc_nano.a(libc_a-malloc.o)
                              CMakeFiles/freertos_hello.elf.dir/project/sdk/devices/LPC5536/drivers/fsl_common.c.obj (malloc)
/opt/arm/arm-gnu-toolchain-12.2.rel1-x86_64-arm-none-eabi/bin/../lib/gcc/arm-none-eabi/12.2.1/../../../../arm-none-eabi/lib/thumb/v8-m.main+fp/hard/libc_nano.a(libc_a-mallocr.o)
                              /opt/arm/arm-gnu-toolchain-12.2.rel1-x86_64-arm-none-eabi/bin/../lib/gcc/arm-none-eabi/12.2.1/../../../../arm-none-eabi/lib/thumb/v8-m.main+fp/hard/libc_nano.a(libc_a-malloc.o) (_malloc_r)
/opt/arm/arm-gnu-toolchain-12.2.rel1-x86_64-arm-none-eabi/bin/../lib/gcc/arm-none-eabi/12.2.1/../../../../arm-none-eabi/lib/thumb/v8-m.main+fp/hard/libc_nano.a(libc_a-findfp.o)
                              /opt/arm/arm-gnu-toolchain-12.2.rel1-x86_64-arm-none-eabi/bin/../lib/gcc/arm-none-eabi/12.2.1/../../../../arm-none-eabi/lib/thumb/v8-m.main+fp/hard/libc_nano.a(libc_a-exit.o) (__stdio_exit_handler)
/opt/arm/arm-gnu-toolchain-12.2.rel1-x86_64-arm-none-eabi/bin/../lib/gcc/arm-none-eabi/12.2.1/../../../../arm-none-eabi/lib/thumb/v8-m.main+fp/hard/libc_nano.a(libc_a-strlen.o)
                              CMakeFiles/freertos_hello.elf.dir/project/sdk/devices/LPC5536/utilities/str/fsl_str.c.obj (strlen)
/opt/arm/arm-gnu-toolchain-12.2.rel1-x86_64-arm-none-eabi/bin/../lib/gcc/arm-none-eabi/12.2.1/../../../../arm-none-eabi/lib/thumb/v8-m.main+fp/hard/libc_nano.a(libc_a-stdio.o)
                              /opt/arm/arm-gnu-toolchain-12.2.rel1-x86_64-arm-none-eabi/bin/../lib/gcc/arm-none-eabi/12.2.1/../../../../arm-none-eabi/lib/thumb/v8-m.main+fp/hard/libc_nano.a(libc_a-findfp.o) (__sread)
/opt/arm/arm-gnu-toolchain-12.2.rel1-x86_64-arm-none-eabi/bin/../lib/gcc/arm-none-eabi/12.2.1/../../../../arm-none-eabi/lib/thumb/v8-m.main+fp/hard/libc_nano.a(libc_a-mlock.o)
                              /opt/arm/arm-gnu-toolchain-12.2.rel1-x86_64-arm-none-eabi/bin/../lib/gcc/arm-none-eabi/12.2.1/../../../../arm-none-eabi/lib/thumb/v8-m.main+fp/hard/libc_nano.a(libc_a-mallocr.o) (__malloc_lock)
/opt/arm/arm-gnu-toolchain-12.2.rel1-x86_64-arm-none-eabi/bin/../lib/gcc/arm-none-eabi/12.2.1/../../../../arm-none-eabi/lib/thumb/v8-m.main+fp/hard/libc_nano.a(libc_a-ctype_.o)
                              /opt/arm/arm-gnu-toolchain-12.2.rel1-x86_64-arm-none-eabi/bin/../lib/gcc/arm-none-eabi/12.2.1/../../../../arm-none-eabi/lib/thumb/v8-m.main+fp/hard/libc_nano.a(libc_a-strtoul.o) (_ctype_)
/opt/arm/arm-gnu-toolchain-12.2.rel1-x86_64-arm-none-eabi/bin/../lib/gcc/arm-none-eabi/12.2.1/../../../../arm-none-eabi/lib/thumb/v8-m.main+fp/hard/libc_nano.a(libc_a-sbrkr.o)
                              /opt/arm/arm-gnu-toolchain-12.2.rel1-x86_64-arm-none-eabi/bin/../lib/gcc/arm-none-eabi/12.2.1/../../../../arm-none-eabi/lib/thumb/v8-m.main+fp/hard/libc_nano.a(libc_a-mallocr.o) (_sbrk_r)
/opt/arm/arm-gnu-toolchain-12.2.rel1-x86_64-arm-none-eabi/bin/../lib/gcc/arm-none-eabi/12.2.1/../../../../arm-none-eabi/lib/thumb/v8-m.main+fp/hard/libc_nano.a(libc_a-writer.o)
                              /opt/arm/arm-gnu-toolchain-12.2.rel1-x86_64-arm-none-eabi/bin/../lib/gcc/arm-none-eabi/12.2.1/../../../../arm-none-eabi/lib/thumb/v8-m.main+fp/hard/libc_nano.a(libc_a-stdio.o) (_write_r)
/opt/arm/arm-gnu-toolchain-12.2.rel1-x86_64-arm-none-eabi/bin/../lib/gcc/arm-none-eabi/12.2.1/../../../../arm-none-eabi/lib/thumb/v8-m.main+fp/hard/libc_nano.a(libc_a-errno.o)
                              CMakeFiles/freertos_hello.elf.dir/project/sdk/devices/LPC5536/utilities/fsl_sbrk.c.obj (__errno)
/opt/arm/arm-gnu-toolchain-12.2.rel1-x86_64-arm-none-eabi/bin/../lib/gcc/arm-none-eabi/12.2.1/../../../../arm-none-eabi/lib/thumb/v8-m.main+fp/hard/libc_nano.a(libc_a-fwalk.o)
                              /opt/arm/arm-gnu-toolchain-12.2.rel1-x86_64-arm-none-eabi/bin/../lib/gcc/arm-none-eabi/12.2.1/../../../../arm-none-eabi/lib/thumb/v8-m.main+fp/hard/libc_nano.a(libc_a-findfp.o) (_fwalk_sglue)
/opt/arm/arm-gnu-toolchain-12.2.rel1-x86_64-arm-none-eabi/bin/../lib/gcc/arm-none-eabi/12.2.1/../../../../arm-none-eabi/lib/thumb/v8-m.main+fp/hard/libc_nano.a(libc_a-memset.o)
                              /opt/arm/arm-gnu-toolchain-12.2.rel1-x86_64-arm-none-eabi/bin/../lib/gcc/arm-none-eabi/12.2.1/../../../../arm-none-eabi/lib/thumb/v8-m.main+fp/hard/crt0.o (memset)
/opt/arm/arm-gnu-toolchain-12.2.rel1-x86_64-arm-none-eabi/bin/../lib/gcc/arm-none-eabi/12.2.1/../../../../arm-none-eabi/lib/thumb/v8-m.main+fp/hard/libc_nano.a(libc_a-freer.o)
                              /opt/arm/arm-gnu-toolchain-12.2.rel1-x86_64-arm-none-eabi/bin/../lib/gcc/arm-none-eabi/12.2.1/../../../../arm-none-eabi/lib/thumb/v8-m.main+fp/hard/libc_nano.a(libc_a-malloc.o) (_free_r)
/opt/arm/arm-gnu-toolchain-12.2.rel1-x86_64-arm-none-eabi/bin/../lib/gcc/arm-none-eabi/12.2.1/../../../../arm-none-eabi/lib/thumb/v8-m.main+fp/hard/libc_nano.a(libc_a-lock.o)
                              /opt/arm/arm-gnu-toolchain-12.2.rel1-x86_64-arm-none-eabi/bin/../lib/gcc/arm-none-eabi/12.2.1/../../../../arm-none-eabi/lib/thumb/v8-m.main+fp/hard/libc_nano.a(libc_a-findfp.o) (__retarget_lock_init_recursive)
/opt/arm/arm-gnu-toolchain-12.2.rel1-x86_64-arm-none-eabi/bin/../lib/gcc/arm-none-eabi/12.2.1/../../../../arm-none-eabi/lib/thumb/v8-m.main+fp/hard/libc_nano.a(libc_a-closer.o)
                              /opt/arm/arm-gnu-toolchain-12.2.rel1-x86_64-arm-none-eabi/bin/../lib/gcc/arm-none-eabi/12.2.1/../../../../arm-none-eabi/lib/thumb/v8-m.main+fp/hard/libc_nano.a(libc_a-stdio.o) (_close_r)
/opt/arm/arm-gnu-toolchain-12.2.rel1-x86_64-arm-none-eabi/bin/../lib/gcc/arm-none-eabi/12.2.1/../../../../arm-none-eabi/lib/thumb/v8-m.main+fp/hard/libc_nano.a(libc_a-reent.o)
                              /opt/arm/arm-gnu-toolchain-12.2.rel1-x86_64-arm-none-eabi/bin/../lib/gcc/arm-none-eabi/12.2.1/../../../../arm-none-eabi/lib/thumb/v8-m.main+fp/hard/libc_nano.a(libc_a-sbrkr.o) (errno)
/opt/arm/arm-gnu-toolchain-12.2.rel1-x86_64-arm-none-eabi/bin/../lib/gcc/arm-none-eabi/12.2.1/../../../../arm-none-eabi/lib/thumb/v8-m.main+fp/hard/libc_nano.a(libc_a-fflush.o)
                              /opt/arm/arm-gnu-toolchain-12.2.rel1-x86_64-arm-none-eabi/bin/../lib/gcc/arm-none-eabi/12.2.1/../../../../arm-none-eabi/lib/thumb/v8-m.main+fp/hard/libc_nano.a(libc_a-findfp.o) (_fflush_r)
/opt/arm/arm-gnu-toolchain-12.2.rel1-x86_64-arm-none-eabi/bin/../lib/gcc/arm-none-eabi/12.2.1/../../../../arm-none-eabi/lib/thumb/v8-m.main+fp/hard/libc_nano.a(libc_a-lseekr.o)
                              /opt/arm/arm-gnu-toolchain-12.2.rel1-x86_64-arm-none-eabi/bin/../lib/gcc/arm-none-eabi/12.2.1/../../../../arm-none-eabi/lib/thumb/v8-m.main+fp/hard/libc_nano.a(libc_a-stdio.o) (_lseek_r)
/opt/arm/arm-gnu-toolchain-12.2.rel1-x86_64-arm-none-eabi/bin/../lib/gcc/arm-none-eabi/12.2.1/../../../../arm-none-eabi/lib/thumb/v8-m.main+fp/hard/libc_nano.a(libc_a-readr.o)
                              /opt/arm/arm-gnu-toolchain-12.2.rel1-x86_64-arm-none-eabi/bin/../lib/gcc/arm-none-eabi/12.2.1/../../../../arm-none-eabi/lib/thumb/v8-m.main+fp/hard/libc_nano.a(libc_a-stdio.o) (_read_r)
/opt/arm/arm-gnu-toolchain-12.2.rel1-x86_64-arm-none-eabi/bin/../lib/gcc/arm-none-eabi/12.2.1/../../../../arm-none-eabi/lib/thumb/v8-m.main+fp/hard/libcr_newlib_nohost.a(_exit.o)
                              /opt/arm/arm-gnu-toolchain-12.2.rel1-x86_64-arm-none-eabi/bin/../lib/gcc/arm-none-eabi/12.2.1/../../../../arm-none-eabi/lib/thumb/v8-m.main+fp/hard/libc_nano.a(libc_a-exit.o) (_exit)

Discarded input sections

 .text          0x0000000000000000        0x0 /opt/arm/arm-gnu-toolchain-12.2.rel1-x86_64-arm-none-eabi/bin/../lib/gcc/arm-none-eabi/12.2.1/thumb/v8-m.main+fp/hard/crti.o
 .data          0x0000000000000000        0x0 /opt/arm/arm-gnu-toolchain-12.2.rel1-x86_64-arm-none-eabi/bin/../lib/gcc/arm-none-eabi/12.2.1/thumb/v8-m.main+fp/hard/crti.o
 .bss           0x0000000000000000        0x0 /opt/arm/arm-gnu-toolchain-12.2.rel1-x86_64-arm-none-eabi/bin/../lib/gcc/arm-none-eabi/12.2.1/thumb/v8-m.main+fp/hard/crti.o
 .text          0x0000000000000000        0x0 /opt/arm/arm-gnu-toolchain-12.2.rel1-x86_64-arm-none-eabi/bin/../lib/gcc/arm-none-eabi/12.2.1/thumb/v8-m.main+fp/hard/crtbegin.o
 .data          0x0000000000000000        0x0 /opt/arm/arm-gnu-toolchain-12.2.rel1-x86_64-arm-none-eabi/bin/../lib/gcc/arm-none-eabi/12.2.1/thumb/v8-m.main+fp/hard/crtbegin.o
 .bss           0x0000000000000000        0x0 /opt/arm/arm-gnu-toolchain-12.2.rel1-x86_64-arm-none-eabi/bin/../lib/gcc/arm-none-eabi/12.2.1/thumb/v8-m.main+fp/hard/crtbegin.o
 .rodata.all_implied_fbits
                0x0000000000000000       0x24 /opt/arm/arm-gnu-toolchain-12.2.rel1-x86_64-arm-none-eabi/bin/../lib/gcc/arm-none-eabi/12.2.1/thumb/v8-m.main+fp/hard/crtbegin.o
 .data.__dso_handle
                0x0000000000000000        0x4 /opt/arm/arm-gnu-toolchain-12.2.rel1-x86_64-arm-none-eabi/bin/../lib/gcc/arm-none-eabi/12.2.1/thumb/v8-m.main+fp/hard/crtbegin.o
 .data          0x0000000000000000        0x0 /opt/arm/arm-gnu-toolchain-12.2.rel1-x86_64-arm-none-eabi/bin/../lib/gcc/arm-none-eabi/12.2.1/../../../../arm-none-eabi/lib/thumb/v8-m.main+fp/hard/crt0.o
 .bss           0x0000000000000000        0x0 /opt/arm/arm-gnu-toolchain-12.2.rel1-x86_64-arm-none-eabi/bin/../lib/gcc/arm-none-eabi/12.2.1/../../../../arm-none-eabi/lib/thumb/v8-m.main+fp/hard/crt0.o
 .ARM.extab     0x0000000000000000        0x0 /opt/arm/arm-gnu-toolchain-12.2.rel1-x86_64-arm-none-eabi/bin/../lib/gcc/arm-none-eabi/12.2.1/../../../../arm-none-eabi/lib/thumb/v8-m.main+fp/hard/crt0.o
 .text          0x0000000000000000        0x0 CMakeFiles/freertos_hello.elf.dir/project/src/freertos_hello.c.obj
 .data          0x0000000000000000        0x0 CMakeFiles/freertos_hello.elf.dir/project/src/freertos_hello.c.obj
 .bss           0x0000000000000000        0x0 CMakeFiles/freertos_hello.elf.dir/project/src/freertos_hello.c.obj
 .text          0x0000000000000000        0x0 CMakeFiles/freertos_hello.elf.dir/project/board/clock_config.c.obj
 .data          0x0000000000000000        0x0 CMakeFiles/freertos_hello.elf.dir/project/board/clock_config.c.obj
 .bss           0x0000000000000000        0x0 CMakeFiles/freertos_hello.elf.dir/project/board/clock_config.c.obj
 .text          0x0000000000000000        0x0 CMakeFiles/freertos_hello.elf.dir/project/board/pin_mux.c.obj
 .data          0x0000000000000000        0x0 CMakeFiles/freertos_hello.elf.dir/project/board/pin_mux.c.obj
 .bss           0x0000000000000000        0x0 CMakeFiles/freertos_hello.elf.dir/project/board/pin_mux.c.obj
 .text          0x0000000000000000        0x0 CMakeFiles/freertos_hello.elf.dir/project/board/peripherals.c.obj
 .data          0x0000000000000000        0x0 CMakeFiles/freertos_hello.elf.dir/project/board/peripherals.c.obj
 .bss           0x0000000000000000        0x0 CMakeFiles/freertos_hello.elf.dir/project/board/peripherals.c.obj
 .text.BOARD_InitPeripherals
                0x0000000000000000        0xe CMakeFiles/freertos_hello.elf.dir/project/board/peripherals.c.obj
 .text.BOARD_InitBootPeripherals
                0x0000000000000000        0xc CMakeFiles/freertos_hello.elf.dir/project/board/peripherals.c.obj
 .debug_info    0x0000000000000000       0x9f CMakeFiles/freertos_hello.elf.dir/project/board/peripherals.c.obj
 .debug_abbrev  0x0000000000000000       0x5c CMakeFiles/freertos_hello.elf.dir/project/board/peripherals.c.obj
 .debug_aranges
                0x0000000000000000       0x28 CMakeFiles/freertos_hello.elf.dir/project/board/peripherals.c.obj
 .debug_rnglists
                0x0000000000000000       0x19 CMakeFiles/freertos_hello.elf.dir/project/board/peripherals.c.obj
 .debug_line    0x0000000000000000       0x68 CMakeFiles/freertos_hello.elf.dir/project/board/peripherals.c.obj
 .debug_str     0x0000000000000000      0x1ea CMakeFiles/freertos_hello.elf.dir/project/board/peripherals.c.obj
 .comment       0x0000000000000000       0x46 CMakeFiles/freertos_hello.elf.dir/project/board/peripherals.c.obj
 .debug_frame   0x0000000000000000       0x4c CMakeFiles/freertos_hello.elf.dir/project/board/peripherals.c.obj
 .ARM.attributes
                0x0000000000000000       0x3a CMakeFiles/freertos_hello.elf.dir/project/board/peripherals.c.obj
 .text          0x0000000000000000        0x0 CMakeFiles/freertos_hello.elf.dir/project/sdk/components/lists/fsl_component_generic_list.c.obj
 .data          0x0000000000000000        0x0 CMakeFiles/freertos_hello.elf.dir/project/sdk/components/lists/fsl_component_generic_list.c.obj
 .bss           0x0000000000000000        0x0 CMakeFiles/freertos_hello.elf.dir/project/sdk/components/lists/fsl_component_generic_list.c.obj
 .text.DisableGlobalIRQ
                0x0000000000000000       0x22 CMakeFiles/freertos_hello.elf.dir/project/sdk/components/lists/fsl_component_generic_list.c.obj
 .text.EnableGlobalIRQ
                0x0000000000000000       0x20 CMakeFiles/freertos_hello.elf.dir/project/sdk/components/lists/fsl_component_generic_list.c.obj
 .text.LIST_Error_Check
                0x0000000000000000       0x36 CMakeFiles/freertos_hello.elf.dir/project/sdk/components/lists/fsl_component_generic_list.c.obj
 .text.LIST_Init
                0x0000000000000000       0x2e CMakeFiles/freertos_hello.elf.dir/project/sdk/components/lists/fsl_component_generic_list.c.obj
 .text.LIST_GetList
                0x0000000000000000       0x18 CMakeFiles/freertos_hello.elf.dir/project/sdk/components/lists/fsl_component_generic_list.c.obj
 .text.LIST_AddTail
                0x0000000000000000       0x6a CMakeFiles/freertos_hello.elf.dir/project/sdk/components/lists/fsl_component_generic_list.c.obj
 .text.LIST_AddHead
                0x0000000000000000       0x62 CMakeFiles/freertos_hello.elf.dir/project/sdk/components/lists/fsl_component_generic_list.c.obj
 .text.LIST_RemoveHead
                0x0000000000000000       0x5e CMakeFiles/freertos_hello.elf.dir/project/sdk/components/lists/fsl_component_generic_list.c.obj
 .text.LIST_GetHead
                0x0000000000000000       0x18 CMakeFiles/freertos_hello.elf.dir/project/sdk/components/lists/fsl_component_generic_list.c.obj
 .text.LIST_GetNext
                0x0000000000000000       0x18 CMakeFiles/freertos_hello.elf.dir/project/sdk/components/lists/fsl_component_generic_list.c.obj
 .text.LIST_GetPrev
                0x0000000000000000       0x16 CMakeFiles/freertos_hello.elf.dir/project/sdk/components/lists/fsl_component_generic_list.c.obj
 .text.LIST_RemoveElement
                0x0000000000000000       0x84 CMakeFiles/freertos_hello.elf.dir/project/sdk/components/lists/fsl_component_generic_list.c.obj
 .text.LIST_AddPrevElement
                0x0000000000000000       0xa4 CMakeFiles/freertos_hello.elf.dir/project/sdk/components/lists/fsl_component_generic_list.c.obj
 .text.LIST_GetSize
                0x0000000000000000       0x18 CMakeFiles/freertos_hello.elf.dir/project/sdk/components/lists/fsl_component_generic_list.c.obj
 .text.LIST_GetAvailableSize
                0x0000000000000000       0x1e CMakeFiles/freertos_hello.elf.dir/project/sdk/components/lists/fsl_component_generic_list.c.obj
 .debug_info    0x0000000000000000      0x56e CMakeFiles/freertos_hello.elf.dir/project/sdk/components/lists/fsl_component_generic_list.c.obj
 .debug_abbrev  0x0000000000000000      0x280 CMakeFiles/freertos_hello.elf.dir/project/sdk/components/lists/fsl_component_generic_list.c.obj
 .debug_aranges
                0x0000000000000000       0x90 CMakeFiles/freertos_hello.elf.dir/project/sdk/components/lists/fsl_component_generic_list.c.obj
 .debug_rnglists
                0x0000000000000000       0x69 CMakeFiles/freertos_hello.elf.dir/project/sdk/components/lists/fsl_component_generic_list.c.obj
 .debug_line    0x0000000000000000      0x44f CMakeFiles/freertos_hello.elf.dir/project/sdk/components/lists/fsl_component_generic_list.c.obj
 .debug_str     0x0000000000000000      0x40f CMakeFiles/freertos_hello.elf.dir/project/sdk/components/lists/fsl_component_generic_list.c.obj
 .comment       0x0000000000000000       0x46 CMakeFiles/freertos_hello.elf.dir/project/sdk/components/lists/fsl_component_generic_list.c.obj
 .debug_frame   0x0000000000000000      0x254 CMakeFiles/freertos_hello.elf.dir/project/sdk/components/lists/fsl_component_generic_list.c.obj
 .ARM.attributes
                0x0000000000000000       0x3a CMakeFiles/freertos_hello.elf.dir/project/sdk/components/lists/fsl_component_generic_list.c.obj
 .text          0x0000000000000000        0x0 CMakeFiles/freertos_hello.elf.dir/project/sdk/components/serial_manager/fsl_component_serial_manager.c.obj
 .data          0x0000000000000000        0x0 CMakeFiles/freertos_hello.elf.dir/project/sdk/components/serial_manager/fsl_component_serial_manager.c.obj
 .bss           0x0000000000000000        0x0 CMakeFiles/freertos_hello.elf.dir/project/sdk/components/serial_manager/fsl_component_serial_manager.c.obj
 .text.DisableGlobalIRQ
                0x0000000000000000       0x22 CMakeFiles/freertos_hello.elf.dir/project/sdk/components/serial_manager/fsl_component_serial_manager.c.obj
 .text.EnableGlobalIRQ
                0x0000000000000000       0x20 CMakeFiles/freertos_hello.elf.dir/project/sdk/components/serial_manager/fsl_component_serial_manager.c.obj
 .bss.s_pfserialLowpowerCriticalCallbacks
                0x0000000000000000        0x4 CMakeFiles/freertos_hello.elf.dir/project/sdk/components/serial_manager/fsl_component_serial_manager.c.obj
 .text.SerialManager_StartReading
                0x0000000000000000       0x38 CMakeFiles/freertos_hello.elf.dir/project/sdk/components/serial_manager/fsl_component_serial_manager.c.obj
 .text.SerialManager_Read
                0x0000000000000000       0x44 CMakeFiles/freertos_hello.elf.dir/project/sdk/components/serial_manager/fsl_component_serial_manager.c.obj
 .text.SerialManager_Init
                0x0000000000000000       0x60 CMakeFiles/freertos_hello.elf.dir/project/sdk/components/serial_manager/fsl_component_serial_manager.c.obj
 .text.SerialManager_Deinit
                0x0000000000000000       0x4e CMakeFiles/freertos_hello.elf.dir/project/sdk/components/serial_manager/fsl_component_serial_manager.c.obj
 .text.SerialManager_OpenWriteHandle
                0x0000000000000000       0x50 CMakeFiles/freertos_hello.elf.dir/project/sdk/components/serial_manager/fsl_component_serial_manager.c.obj
 .text.SerialManager_CloseWriteHandle
                0x0000000000000000       0x50 CMakeFiles/freertos_hello.elf.dir/project/sdk/components/serial_manager/fsl_component_serial_manager.c.obj
 .text.SerialManager_OpenReadHandle
                0x0000000000000000       0x60 CMakeFiles/freertos_hello.elf.dir/project/sdk/components/serial_manager/fsl_component_serial_manager.c.obj
 .text.SerialManager_CloseReadHandle
                0x0000000000000000       0x50 CMakeFiles/freertos_hello.elf.dir/project/sdk/components/serial_manager/fsl_component_serial_manager.c.obj
 .text.SerialManager_ReadBlocking
                0x0000000000000000       0x20 CMakeFiles/freertos_hello.elf.dir/project/sdk/components/serial_manager/fsl_component_serial_manager.c.obj
 .text.SerialManager_EnterLowpower
                0x0000000000000000       0x3c CMakeFiles/freertos_hello.elf.dir/project/sdk/components/serial_manager/fsl_component_serial_manager.c.obj
 .text.SerialManager_ExitLowpower
                0x0000000000000000       0x3c CMakeFiles/freertos_hello.elf.dir/project/sdk/components/serial_manager/fsl_component_serial_manager.c.obj
 .text.SerialManager_SetLowpowerCriticalCb
                0x0000000000000000       0x20 CMakeFiles/freertos_hello.elf.dir/project/sdk/components/serial_manager/fsl_component_serial_manager.c.obj
 .text          0x0000000000000000        0x0 CMakeFiles/freertos_hello.elf.dir/project/sdk/components/serial_manager/fsl_component_serial_port_uart.c.obj
 .data          0x0000000000000000        0x0 CMakeFiles/freertos_hello.elf.dir/project/sdk/components/serial_manager/fsl_component_serial_port_uart.c.obj
 .bss           0x0000000000000000        0x0 CMakeFiles/freertos_hello.elf.dir/project/sdk/components/serial_manager/fsl_component_serial_port_uart.c.obj
 .text.Serial_UartInit
                0x0000000000000000       0x3e CMakeFiles/freertos_hello.elf.dir/project/sdk/components/serial_manager/fsl_component_serial_port_uart.c.obj
 .text.Serial_UartDeinit
                0x0000000000000000       0x24 CMakeFiles/freertos_hello.elf.dir/project/sdk/components/serial_manager/fsl_component_serial_port_uart.c.obj
 .text.Serial_UartRead
                0x0000000000000000       0x38 CMakeFiles/freertos_hello.elf.dir/project/sdk/components/serial_manager/fsl_component_serial_port_uart.c.obj
 .text.Serial_UartEnterLowpower
                0x0000000000000000       0x2e CMakeFiles/freertos_hello.elf.dir/project/sdk/components/serial_manager/fsl_component_serial_port_uart.c.obj
 .text.Serial_UartExitLowpower
                0x0000000000000000       0x32 CMakeFiles/freertos_hello.elf.dir/project/sdk/components/serial_manager/fsl_component_serial_port_uart.c.obj
 .text          0x0000000000000000        0x0 CMakeFiles/freertos_hello.elf.dir/project/sdk/components/uart/fsl_adapter_usart.c.obj
 .data          0x0000000000000000        0x0 CMakeFiles/freertos_hello.elf.dir/project/sdk/components/uart/fsl_adapter_usart.c.obj
 .bss           0x0000000000000000        0x0 CMakeFiles/freertos_hello.elf.dir/project/sdk/components/uart/fsl_adapter_usart.c.obj
 .text.HAL_UartGetStatus
                0x0000000000000000       0x22 CMakeFiles/freertos_hello.elf.dir/project/sdk/components/uart/fsl_adapter_usart.c.obj
 .text.HAL_UartInitCommon
                0x0000000000000000      0x138 CMakeFiles/freertos_hello.elf.dir/project/sdk/components/uart/fsl_adapter_usart.c.obj
 .text.HAL_UartInit
                0x0000000000000000       0x36 CMakeFiles/freertos_hello.elf.dir/project/sdk/components/uart/fsl_adapter_usart.c.obj
 .text.HAL_UartDeinit
                0x0000000000000000       0x4c CMakeFiles/freertos_hello.elf.dir/project/sdk/components/uart/fsl_adapter_usart.c.obj
 .text.HAL_UartReceiveBlocking
                0x0000000000000000       0x8c CMakeFiles/freertos_hello.elf.dir/project/sdk/components/uart/fsl_adapter_usart.c.obj
 .text.HAL_UartEnterLowpower
                0x0000000000000000       0x34 CMakeFiles/freertos_hello.elf.dir/project/sdk/components/uart/fsl_adapter_usart.c.obj
 .text.HAL_UartExitLowpower
                0x0000000000000000       0x16 CMakeFiles/freertos_hello.elf.dir/project/sdk/components/uart/fsl_adapter_usart.c.obj
 .rodata.__func__.4
                0x0000000000000000       0x13 CMakeFiles/freertos_hello.elf.dir/project/sdk/components/uart/fsl_adapter_usart.c.obj
 .rodata.__func__.3
                0x0000000000000000        0xf CMakeFiles/freertos_hello.elf.dir/project/sdk/components/uart/fsl_adapter_usart.c.obj
 .rodata.__func__.2
                0x0000000000000000       0x18 CMakeFiles/freertos_hello.elf.dir/project/sdk/components/uart/fsl_adapter_usart.c.obj
 .rodata.__func__.0
                0x0000000000000000       0x16 CMakeFiles/freertos_hello.elf.dir/project/sdk/components/uart/fsl_adapter_usart.c.obj
 .data          0x0000000000000000        0x0 CMakeFiles/freertos_hello.elf.dir/project/sdk/devices/LPC5536/gcc/startup_LPC5536.S.obj
 .bss           0x0000000000000000        0x0 CMakeFiles/freertos_hello.elf.dir/project/sdk/devices/LPC5536/gcc/startup_LPC5536.S.obj
 .text          0x0000000000000000        0x0 CMakeFiles/freertos_hello.elf.dir/project/sdk/devices/LPC5536/system_LPC5536.c.obj
 .data          0x0000000000000000        0x0 CMakeFiles/freertos_hello.elf.dir/project/sdk/devices/LPC5536/system_LPC5536.c.obj
 .bss           0x0000000000000000        0x0 CMakeFiles/freertos_hello.elf.dir/project/sdk/devices/LPC5536/system_LPC5536.c.obj
 .text.SystemCoreClockUpdate
                0x0000000000000000        0xe CMakeFiles/freertos_hello.elf.dir/project/sdk/devices/LPC5536/system_LPC5536.c.obj
 .text          0x0000000000000000        0x0 CMakeFiles/freertos_hello.elf.dir/project/sdk/devices/LPC5536/drivers/fsl_clock.c.obj
 .data          0x0000000000000000        0x0 CMakeFiles/freertos_hello.elf.dir/project/sdk/devices/LPC5536/drivers/fsl_clock.c.obj
 .bss           0x0000000000000000        0x0 CMakeFiles/freertos_hello.elf.dir/project/sdk/devices/LPC5536/drivers/fsl_clock.c.obj
 .text.CLOCK_EnableClock
                0x0000000000000000       0x8c CMakeFiles/freertos_hello.elf.dir/project/sdk/devices/LPC5536/drivers/fsl_clock.c.obj
 .text.CLOCK_DisableClock
                0x0000000000000000       0xb0 CMakeFiles/freertos_hello.elf.dir/project/sdk/devices/LPC5536/drivers/fsl_clock.c.obj
 .text.CLOCK_IsPLL0Locked
                0x0000000000000000       0x24 CMakeFiles/freertos_hello.elf.dir/project/sdk/devices/LPC5536/drivers/fsl_clock.c.obj
 .text.CLOCK_IsPLL1Locked
                0x0000000000000000       0x24 CMakeFiles/freertos_hello.elf.dir/project/sdk/devices/LPC5536/drivers/fsl_clock.c.obj
 .text.POWER_EnablePD
                0x0000000000000000       0x40 CMakeFiles/freertos_hello.elf.dir/project/sdk/devices/LPC5536/drivers/fsl_clock.c.obj
 .bss.s_Pll0_Freq
                0x0000000000000000        0x4 CMakeFiles/freertos_hello.elf.dir/project/sdk/devices/LPC5536/drivers/fsl_clock.c.obj
 .bss.s_Pll1_Freq
                0x0000000000000000        0x4 CMakeFiles/freertos_hello.elf.dir/project/sdk/devices/LPC5536/drivers/fsl_clock.c.obj
 .data.s_Ext_Clk_Freq
                0x0000000000000000        0x4 CMakeFiles/freertos_hello.elf.dir/project/sdk/devices/LPC5536/drivers/fsl_clock.c.obj
 .bss.s_I2S_Mclk_Freq
                0x0000000000000000        0x4 CMakeFiles/freertos_hello.elf.dir/project/sdk/devices/LPC5536/drivers/fsl_clock.c.obj
 .text.CLOCK_GetClockAttachId
                0x0000000000000000       0xc0 CMakeFiles/freertos_hello.elf.dir/project/sdk/devices/LPC5536/drivers/fsl_clock.c.obj
 .text.CLOCK_SetupExtClocking
                0x0000000000000000       0x50 CMakeFiles/freertos_hello.elf.dir/project/sdk/devices/LPC5536/drivers/fsl_clock.c.obj
 .text.CLOCK_SetupI2SMClkClocking
                0x0000000000000000       0x20 CMakeFiles/freertos_hello.elf.dir/project/sdk/devices/LPC5536/drivers/fsl_clock.c.obj
 .text.CLOCK_GetClockOutClkFreq
                0x0000000000000000       0x9c CMakeFiles/freertos_hello.elf.dir/project/sdk/devices/LPC5536/drivers/fsl_clock.c.obj
 .text.CLOCK_GetMCanClkFreq
                0x0000000000000000       0x7c CMakeFiles/freertos_hello.elf.dir/project/sdk/devices/LPC5536/drivers/fsl_clock.c.obj
 .text.CLOCK_GetAdcClkFreq
                0x0000000000000000       0x8e CMakeFiles/freertos_hello.elf.dir/project/sdk/devices/LPC5536/drivers/fsl_clock.c.obj
 .text.CLOCK_GetUsb0ClkFreq
                0x0000000000000000       0x84 CMakeFiles/freertos_hello.elf.dir/project/sdk/devices/LPC5536/drivers/fsl_clock.c.obj
 .text.CLOCK_GetMclkClkFreq
                0x0000000000000000       0x5a CMakeFiles/freertos_hello.elf.dir/project/sdk/devices/LPC5536/drivers/fsl_clock.c.obj
 .text.CLOCK_GetSctClkFreq
                0x0000000000000000       0x94 CMakeFiles/freertos_hello.elf.dir/project/sdk/devices/LPC5536/drivers/fsl_clock.c.obj
 .text.CLOCK_GetFro12MFreq
                0x0000000000000000       0x28 CMakeFiles/freertos_hello.elf.dir/project/sdk/devices/LPC5536/drivers/fsl_clock.c.obj
 .text.CLOCK_GetFro1MFreq
                0x0000000000000000       0x28 CMakeFiles/freertos_hello.elf.dir/project/sdk/devices/LPC5536/drivers/fsl_clock.c.obj
 .text.CLOCK_GetExtClkFreq
                0x0000000000000000       0x2c CMakeFiles/freertos_hello.elf.dir/project/sdk/devices/LPC5536/drivers/fsl_clock.c.obj
 .text.CLOCK_GetWdtClkFreq
                0x0000000000000000       0x20 CMakeFiles/freertos_hello.elf.dir/project/sdk/devices/LPC5536/drivers/fsl_clock.c.obj
 .text.CLOCK_GetFroHfFreq
                0x0000000000000000       0x28 CMakeFiles/freertos_hello.elf.dir/project/sdk/devices/LPC5536/drivers/fsl_clock.c.obj
 .text.CLOCK_GetPll0OutFreq
                0x0000000000000000       0x18 CMakeFiles/freertos_hello.elf.dir/project/sdk/devices/LPC5536/drivers/fsl_clock.c.obj
 .text.CLOCK_GetPll1OutFreq
                0x0000000000000000       0x18 CMakeFiles/freertos_hello.elf.dir/project/sdk/devices/LPC5536/drivers/fsl_clock.c.obj
 .text.CLOCK_GetOsc32KFreq
                0x0000000000000000       0x58 CMakeFiles/freertos_hello.elf.dir/project/sdk/devices/LPC5536/drivers/fsl_clock.c.obj
 .text.CLOCK_GetFC32KFreq
                0x0000000000000000       0x5c CMakeFiles/freertos_hello.elf.dir/project/sdk/devices/LPC5536/drivers/fsl_clock.c.obj
 .text.CLOCK_GetCoreSysClkFreq
                0x0000000000000000       0xa8 CMakeFiles/freertos_hello.elf.dir/project/sdk/devices/LPC5536/drivers/fsl_clock.c.obj
 .text.CLOCK_GetI2SMClkFreq
                0x0000000000000000       0x18 CMakeFiles/freertos_hello.elf.dir/project/sdk/devices/LPC5536/drivers/fsl_clock.c.obj
 .text.CLOCK_GetPllClkDivFreq
                0x0000000000000000       0x60 CMakeFiles/freertos_hello.elf.dir/project/sdk/devices/LPC5536/drivers/fsl_clock.c.obj
 .text.CLOCK_GetFrgFreq
                0x0000000000000000       0xa8 CMakeFiles/freertos_hello.elf.dir/project/sdk/devices/LPC5536/drivers/fsl_clock.c.obj
 .text.CLOCK_GetFlexCommClkFreq
                0x0000000000000000       0xbc CMakeFiles/freertos_hello.elf.dir/project/sdk/devices/LPC5536/drivers/fsl_clock.c.obj
 .text.CLOCK_GetHsLspiClkFreq
                0x0000000000000000       0xa8 CMakeFiles/freertos_hello.elf.dir/project/sdk/devices/LPC5536/drivers/fsl_clock.c.obj
 .text.CLOCK_GetCTimerClkFreq
                0x0000000000000000       0xa8 CMakeFiles/freertos_hello.elf.dir/project/sdk/devices/LPC5536/drivers/fsl_clock.c.obj
 .text.CLOCK_GetSystickClkFreq
                0x0000000000000000       0x7c CMakeFiles/freertos_hello.elf.dir/project/sdk/devices/LPC5536/drivers/fsl_clock.c.obj
 .text.CLOCK_GetDacClkFreq
                0x0000000000000000       0x98 CMakeFiles/freertos_hello.elf.dir/project/sdk/devices/LPC5536/drivers/fsl_clock.c.obj
 .text.CLOCK_GetFlexSpiClkFreq
                0x0000000000000000       0x84 CMakeFiles/freertos_hello.elf.dir/project/sdk/devices/LPC5536/drivers/fsl_clock.c.obj
 .text.CLOCK_GetDmicClkFreq
                0x0000000000000000       0x84 CMakeFiles/freertos_hello.elf.dir/project/sdk/devices/LPC5536/drivers/fsl_clock.c.obj
 .text.CLOCK_GetI3cClkFreq
                0x0000000000000000       0x4e CMakeFiles/freertos_hello.elf.dir/project/sdk/devices/LPC5536/drivers/fsl_clock.c.obj
 .text.CLOCK_GetI3cSTCClkFreq
                0x0000000000000000       0x4e CMakeFiles/freertos_hello.elf.dir/project/sdk/devices/LPC5536/drivers/fsl_clock.c.obj
 .text.CLOCK_GetI3cSClkFreq
                0x0000000000000000       0x40 CMakeFiles/freertos_hello.elf.dir/project/sdk/devices/LPC5536/drivers/fsl_clock.c.obj
 .text.CLOCK_GetFreq
                0x0000000000000000       0xc4 CMakeFiles/freertos_hello.elf.dir/project/sdk/devices/LPC5536/drivers/fsl_clock.c.obj
 .text.pllFindSel
                0x0000000000000000       0x98 CMakeFiles/freertos_hello.elf.dir/project/sdk/devices/LPC5536/drivers/fsl_clock.c.obj
 .text.findPll0PreDiv
                0x0000000000000000       0x3e CMakeFiles/freertos_hello.elf.dir/project/sdk/devices/LPC5536/drivers/fsl_clock.c.obj
 .text.findPll1PreDiv
                0x0000000000000000       0x3e CMakeFiles/freertos_hello.elf.dir/project/sdk/devices/LPC5536/drivers/fsl_clock.c.obj
 .text.findPll0PostDiv
                0x0000000000000000       0x62 CMakeFiles/freertos_hello.elf.dir/project/sdk/devices/LPC5536/drivers/fsl_clock.c.obj
 .text.findPll1PostDiv
                0x0000000000000000       0x62 CMakeFiles/freertos_hello.elf.dir/project/sdk/devices/LPC5536/drivers/fsl_clock.c.obj
 .text.findPll0MMult
                0x0000000000000000       0xb4 CMakeFiles/freertos_hello.elf.dir/project/sdk/devices/LPC5536/drivers/fsl_clock.c.obj
 .text.findPll1MMult
                0x0000000000000000       0x2e CMakeFiles/freertos_hello.elf.dir/project/sdk/devices/LPC5536/drivers/fsl_clock.c.obj
 .text.FindGreatestCommonDivisor
                0x0000000000000000       0x3a CMakeFiles/freertos_hello.elf.dir/project/sdk/devices/LPC5536/drivers/fsl_clock.c.obj
 .text.CLOCK_GetPll0ConfigInternal
                0x0000000000000000      0x238 CMakeFiles/freertos_hello.elf.dir/project/sdk/devices/LPC5536/drivers/fsl_clock.c.obj
 .bss.s_PllSetupCacheStruct
                0x0000000000000000       0x40 CMakeFiles/freertos_hello.elf.dir/project/sdk/devices/LPC5536/drivers/fsl_clock.c.obj
 .bss.s_FinHzCache
                0x0000000000000000        0x8 CMakeFiles/freertos_hello.elf.dir/project/sdk/devices/LPC5536/drivers/fsl_clock.c.obj
 .bss.s_FoutHzCache
                0x0000000000000000        0x8 CMakeFiles/freertos_hello.elf.dir/project/sdk/devices/LPC5536/drivers/fsl_clock.c.obj
 .bss.s_UseSSCache
                0x0000000000000000        0x2 CMakeFiles/freertos_hello.elf.dir/project/sdk/devices/LPC5536/drivers/fsl_clock.c.obj
 .bss.s_PllSetupCacheIdx
                0x0000000000000000        0x4 CMakeFiles/freertos_hello.elf.dir/project/sdk/devices/LPC5536/drivers/fsl_clock.c.obj
 .text.CLOCK_GetPll0Config
                0x0000000000000000      0x160 CMakeFiles/freertos_hello.elf.dir/project/sdk/devices/LPC5536/drivers/fsl_clock.c.obj
 .text.CLOCK_GetPLL0OutFromSetupUpdate
                0x0000000000000000       0x20 CMakeFiles/freertos_hello.elf.dir/project/sdk/devices/LPC5536/drivers/fsl_clock.c.obj
 .text.CLOCK_GetPLL1OutFromSetupUpdate
                0x0000000000000000       0x20 CMakeFiles/freertos_hello.elf.dir/project/sdk/devices/LPC5536/drivers/fsl_clock.c.obj
 .text.CLOCK_GetPLL0InClockRate
                0x0000000000000000       0x64 CMakeFiles/freertos_hello.elf.dir/project/sdk/devices/LPC5536/drivers/fsl_clock.c.obj
 .text.CLOCK_GetPLL1InClockRate
                0x0000000000000000       0x64 CMakeFiles/freertos_hello.elf.dir/project/sdk/devices/LPC5536/drivers/fsl_clock.c.obj
 .text.CLOCK_GetPLL0OutFromSetup
                0x0000000000000000       0xb4 CMakeFiles/freertos_hello.elf.dir/project/sdk/devices/LPC5536/drivers/fsl_clock.c.obj
 .text.CLOCK_GetPLL1OutFromSetup
                0x0000000000000000       0x78 CMakeFiles/freertos_hello.elf.dir/project/sdk/devices/LPC5536/drivers/fsl_clock.c.obj
 .text.CLOCK_SetStoredPLL0ClockRate
                0x0000000000000000       0x20 CMakeFiles/freertos_hello.elf.dir/project/sdk/devices/LPC5536/drivers/fsl_clock.c.obj
 .text.CLOCK_GetPLL0OutClockRate
                0x0000000000000000       0x68 CMakeFiles/freertos_hello.elf.dir/project/sdk/devices/LPC5536/drivers/fsl_clock.c.obj
 .text.CLOCK_GetPLL1OutClockRate
                0x0000000000000000       0x60 CMakeFiles/freertos_hello.elf.dir/project/sdk/devices/LPC5536/drivers/fsl_clock.c.obj
 .text.CLOCK_SetupPLL0Data
                0x0000000000000000       0x8c CMakeFiles/freertos_hello.elf.dir/project/sdk/devices/LPC5536/drivers/fsl_clock.c.obj
 .text.CLOCK_SetupPLL0Prec
                0x0000000000000000      0x168 CMakeFiles/freertos_hello.elf.dir/project/sdk/devices/LPC5536/drivers/fsl_clock.c.obj
 .text.CLOCK_SetPLL0Freq
                0x0000000000000000      0x14c CMakeFiles/freertos_hello.elf.dir/project/sdk/devices/LPC5536/drivers/fsl_clock.c.obj
 .text.CLOCK_SetPLL1Freq
                0x0000000000000000      0x110 CMakeFiles/freertos_hello.elf.dir/project/sdk/devices/LPC5536/drivers/fsl_clock.c.obj
 .text.CLOCK_SetupPLL0Mult
                0x0000000000000000       0xe8 CMakeFiles/freertos_hello.elf.dir/project/sdk/devices/LPC5536/drivers/fsl_clock.c.obj
 .text.CLOCK_EnableUsbfs0DeviceClock
                0x0000000000000000      0x114 CMakeFiles/freertos_hello.elf.dir/project/sdk/devices/LPC5536/drivers/fsl_clock.c.obj
 .text.CLOCK_EnableUsbfs0HostClock
                0x0000000000000000      0x114 CMakeFiles/freertos_hello.elf.dir/project/sdk/devices/LPC5536/drivers/fsl_clock.c.obj
 .text.CLOCK_EnableOstimer32kClock
                0x0000000000000000       0x24 CMakeFiles/freertos_hello.elf.dir/project/sdk/devices/LPC5536/drivers/fsl_clock.c.obj
 .text.CLOCK_XtalHfCapabankTrim
                0x0000000000000000      0x198 CMakeFiles/freertos_hello.elf.dir/project/sdk/devices/LPC5536/drivers/fsl_clock.c.obj
 .text.CLOCK_Xtal32khzCapabankTrim
                0x0000000000000000      0x15c CMakeFiles/freertos_hello.elf.dir/project/sdk/devices/LPC5536/drivers/fsl_clock.c.obj
 .text.CLOCK_SetXtalHfLdo
                0x0000000000000000       0x60 CMakeFiles/freertos_hello.elf.dir/project/sdk/devices/LPC5536/drivers/fsl_clock.c.obj
 .text.CLOCK_u8OscCapConvert
                0x0000000000000000       0x56 CMakeFiles/freertos_hello.elf.dir/project/sdk/devices/LPC5536/drivers/fsl_clock.c.obj
 .text          0x0000000000000000        0x0 CMakeFiles/freertos_hello.elf.dir/project/sdk/devices/LPC5536/drivers/fsl_common.c.obj
 .data          0x0000000000000000        0x0 CMakeFiles/freertos_hello.elf.dir/project/sdk/devices/LPC5536/drivers/fsl_common.c.obj
 .bss           0x0000000000000000        0x0 CMakeFiles/freertos_hello.elf.dir/project/sdk/devices/LPC5536/drivers/fsl_common.c.obj
 .text.SDK_Malloc
                0x0000000000000000       0x92 CMakeFiles/freertos_hello.elf.dir/project/sdk/devices/LPC5536/drivers/fsl_common.c.obj
 .text.SDK_Free
                0x0000000000000000       0x3a CMakeFiles/freertos_hello.elf.dir/project/sdk/devices/LPC5536/drivers/fsl_common.c.obj
 .debug_info    0x0000000000000000      0x1f0 CMakeFiles/freertos_hello.elf.dir/project/sdk/devices/LPC5536/drivers/fsl_common.c.obj
 .debug_abbrev  0x0000000000000000      0x12e CMakeFiles/freertos_hello.elf.dir/project/sdk/devices/LPC5536/drivers/fsl_common.c.obj
 .debug_aranges
                0x0000000000000000       0x28 CMakeFiles/freertos_hello.elf.dir/project/sdk/devices/LPC5536/drivers/fsl_common.c.obj
 .debug_rnglists
                0x0000000000000000       0x1a CMakeFiles/freertos_hello.elf.dir/project/sdk/devices/LPC5536/drivers/fsl_common.c.obj
 .debug_line    0x0000000000000000      0x1c6 CMakeFiles/freertos_hello.elf.dir/project/sdk/devices/LPC5536/drivers/fsl_common.c.obj
 .debug_str     0x0000000000000000      0x2a5 CMakeFiles/freertos_hello.elf.dir/project/sdk/devices/LPC5536/drivers/fsl_common.c.obj
 .comment       0x0000000000000000       0x46 CMakeFiles/freertos_hello.elf.dir/project/sdk/devices/LPC5536/drivers/fsl_common.c.obj
 .debug_frame   0x0000000000000000       0x58 CMakeFiles/freertos_hello.elf.dir/project/sdk/devices/LPC5536/drivers/fsl_common.c.obj
 .ARM.attributes
                0x0000000000000000       0x3a CMakeFiles/freertos_hello.elf.dir/project/sdk/devices/LPC5536/drivers/fsl_common.c.obj
 .text          0x0000000000000000        0x0 CMakeFiles/freertos_hello.elf.dir/project/sdk/devices/LPC5536/drivers/fsl_common_arm.c.obj
 .data          0x0000000000000000        0x0 CMakeFiles/freertos_hello.elf.dir/project/sdk/devices/LPC5536/drivers/fsl_common_arm.c.obj
 .bss           0x0000000000000000        0x0 CMakeFiles/freertos_hello.elf.dir/project/sdk/devices/LPC5536/drivers/fsl_common_arm.c.obj
 .text.__NVIC_EnableIRQ
                0x0000000000000000       0x3c CMakeFiles/freertos_hello.elf.dir/project/sdk/devices/LPC5536/drivers/fsl_common_arm.c.obj
 .text.__NVIC_DisableIRQ
                0x0000000000000000       0x48 CMakeFiles/freertos_hello.elf.dir/project/sdk/devices/LPC5536/drivers/fsl_common_arm.c.obj
 .text.EnableIRQ
                0x0000000000000000       0x32 CMakeFiles/freertos_hello.elf.dir/project/sdk/devices/LPC5536/drivers/fsl_common_arm.c.obj
 .text.DisableIRQ
                0x0000000000000000       0x32 CMakeFiles/freertos_hello.elf.dir/project/sdk/devices/LPC5536/drivers/fsl_common_arm.c.obj
 .text.EnableDeepSleepIRQ
                0x0000000000000000       0x4e CMakeFiles/freertos_hello.elf.dir/project/sdk/devices/LPC5536/drivers/fsl_common_arm.c.obj
 .text.DisableDeepSleepIRQ
                0x0000000000000000       0x4e CMakeFiles/freertos_hello.elf.dir/project/sdk/devices/LPC5536/drivers/fsl_common_arm.c.obj
 .rodata        0x0000000000000000       0x8c CMakeFiles/freertos_hello.elf.dir/project/sdk/devices/LPC5536/drivers/fsl_common_arm.c.obj
 .text.MSDK_EnableCpuCycleCounter
                0x0000000000000000       0x68 CMakeFiles/freertos_hello.elf.dir/project/sdk/devices/LPC5536/drivers/fsl_common_arm.c.obj
 .text.MSDK_GetCpuCycleCount
                0x0000000000000000       0x18 CMakeFiles/freertos_hello.elf.dir/project/sdk/devices/LPC5536/drivers/fsl_common_arm.c.obj
 .text.DelayLoop
                0x0000000000000000       0x20 CMakeFiles/freertos_hello.elf.dir/project/sdk/devices/LPC5536/drivers/fsl_common_arm.c.obj
 .text.SDK_DelayAtLeastUs
                0x0000000000000000       0x98 CMakeFiles/freertos_hello.elf.dir/project/sdk/devices/LPC5536/drivers/fsl_common_arm.c.obj
 .rodata.__func__.1
                0x0000000000000000       0x1b CMakeFiles/freertos_hello.elf.dir/project/sdk/devices/LPC5536/drivers/fsl_common_arm.c.obj
 .rodata.__func__.0
                0x0000000000000000       0x13 CMakeFiles/freertos_hello.elf.dir/project/sdk/devices/LPC5536/drivers/fsl_common_arm.c.obj
 .debug_info    0x0000000000000000     0x1a75 CMakeFiles/freertos_hello.elf.dir/project/sdk/devices/LPC5536/drivers/fsl_common_arm.c.obj
 .debug_abbrev  0x0000000000000000      0x22b CMakeFiles/freertos_hello.elf.dir/project/sdk/devices/LPC5536/drivers/fsl_common_arm.c.obj
 .debug_aranges
                0x0000000000000000       0x68 CMakeFiles/freertos_hello.elf.dir/project/sdk/devices/LPC5536/drivers/fsl_common_arm.c.obj
 .debug_rnglists
                0x0000000000000000       0x4a CMakeFiles/freertos_hello.elf.dir/project/sdk/devices/LPC5536/drivers/fsl_common_arm.c.obj
 .debug_line    0x0000000000000000      0x37a CMakeFiles/freertos_hello.elf.dir/project/sdk/devices/LPC5536/drivers/fsl_common_arm.c.obj
 .debug_str     0x0000000000000000     0x18aa CMakeFiles/freertos_hello.elf.dir/project/sdk/devices/LPC5536/drivers/fsl_common_arm.c.obj
 .comment       0x0000000000000000       0x46 CMakeFiles/freertos_hello.elf.dir/project/sdk/devices/LPC5536/drivers/fsl_common_arm.c.obj
 .debug_frame   0x0000000000000000      0x180 CMakeFiles/freertos_hello.elf.dir/project/sdk/devices/LPC5536/drivers/fsl_common_arm.c.obj
 .ARM.attributes
                0x0000000000000000       0x3a CMakeFiles/freertos_hello.elf.dir/project/sdk/devices/LPC5536/drivers/fsl_common_arm.c.obj
 .text          0x0000000000000000        0x0 CMakeFiles/freertos_hello.elf.dir/project/sdk/devices/LPC5536/drivers/fsl_flexcomm.c.obj
 .data          0x0000000000000000        0x0 CMakeFiles/freertos_hello.elf.dir/project/sdk/devices/LPC5536/drivers/fsl_flexcomm.c.obj
 .bss           0x0000000000000000        0x0 CMakeFiles/freertos_hello.elf.dir/project/sdk/devices/LPC5536/drivers/fsl_flexcomm.c.obj
 .text.CLOCK_EnableClock
                0x0000000000000000       0x8c CMakeFiles/freertos_hello.elf.dir/project/sdk/devices/LPC5536/drivers/fsl_flexcomm.c.obj
 .rodata.kFlexcommIrqs
                0x0000000000000000        0x9 CMakeFiles/freertos_hello.elf.dir/project/sdk/devices/LPC5536/drivers/fsl_flexcomm.c.obj
 .rodata.s_flexcommClocks
                0x0000000000000000       0x12 CMakeFiles/freertos_hello.elf.dir/project/sdk/devices/LPC5536/drivers/fsl_flexcomm.c.obj
 .rodata.s_flexcommResets
                0x0000000000000000       0x24 CMakeFiles/freertos_hello.elf.dir/project/sdk/devices/LPC5536/drivers/fsl_flexcomm.c.obj
 .text.FLEXCOMM_PeripheralIsPresent
                0x0000000000000000       0x64 CMakeFiles/freertos_hello.elf.dir/project/sdk/devices/LPC5536/drivers/fsl_flexcomm.c.obj
 .text.FLEXCOMM_SetPeriph
                0x0000000000000000       0x74 CMakeFiles/freertos_hello.elf.dir/project/sdk/devices/LPC5536/drivers/fsl_flexcomm.c.obj
 .text.FLEXCOMM_Init
                0x0000000000000000       0x50 CMakeFiles/freertos_hello.elf.dir/project/sdk/devices/LPC5536/drivers/fsl_flexcomm.c.obj
 .text.FLEXCOMM_SetIRQHandler
                0x0000000000000000       0x44 CMakeFiles/freertos_hello.elf.dir/project/sdk/devices/LPC5536/drivers/fsl_flexcomm.c.obj
 .text          0x0000000000000000        0x0 CMakeFiles/freertos_hello.elf.dir/project/sdk/devices/LPC5536/drivers/fsl_usart.c.obj
 .data          0x0000000000000000        0x0 CMakeFiles/freertos_hello.elf.dir/project/sdk/devices/LPC5536/drivers/fsl_usart.c.obj
 .bss           0x0000000000000000        0x0 CMakeFiles/freertos_hello.elf.dir/project/sdk/devices/LPC5536/drivers/fsl_usart.c.obj
 .text.__NVIC_EnableIRQ
                0x0000000000000000       0x3c CMakeFiles/freertos_hello.elf.dir/project/sdk/devices/LPC5536/drivers/fsl_usart.c.obj
 .text.EnableIRQ
                0x0000000000000000       0x32 CMakeFiles/freertos_hello.elf.dir/project/sdk/devices/LPC5536/drivers/fsl_usart.c.obj
 .text.USART_EnableInterrupts
                0x0000000000000000       0x48 CMakeFiles/freertos_hello.elf.dir/project/sdk/devices/LPC5536/drivers/fsl_usart.c.obj
 .text.USART_DisableInterrupts
                0x0000000000000000       0x44 CMakeFiles/freertos_hello.elf.dir/project/sdk/devices/LPC5536/drivers/fsl_usart.c.obj
 .text.USART_GetEnabledInterrupts
                0x0000000000000000       0x38 CMakeFiles/freertos_hello.elf.dir/project/sdk/devices/LPC5536/drivers/fsl_usart.c.obj
 .text.USART_EnableContinuousSCLK
                0x0000000000000000       0x38 CMakeFiles/freertos_hello.elf.dir/project/sdk/devices/LPC5536/drivers/fsl_usart.c.obj
 .rodata.s_usartIRQ
                0x0000000000000000        0x8 CMakeFiles/freertos_hello.elf.dir/project/sdk/devices/LPC5536/drivers/fsl_usart.c.obj
 .rodata.s_usartBaseAddrs
                0x0000000000000000       0x20 CMakeFiles/freertos_hello.elf.dir/project/sdk/devices/LPC5536/drivers/fsl_usart.c.obj
 .text.USART_GetInstance
                0x0000000000000000       0x58 CMakeFiles/freertos_hello.elf.dir/project/sdk/devices/LPC5536/drivers/fsl_usart.c.obj
 .text.USART_TransferGetRxRingBufferLength
                0x0000000000000000       0x5c CMakeFiles/freertos_hello.elf.dir/project/sdk/devices/LPC5536/drivers/fsl_usart.c.obj
 .text.USART_TransferIsRxRingBufferFull
                0x0000000000000000       0x4c CMakeFiles/freertos_hello.elf.dir/project/sdk/devices/LPC5536/drivers/fsl_usart.c.obj
 .text.USART_TransferStartRingBuffer
                0x0000000000000000       0x80 CMakeFiles/freertos_hello.elf.dir/project/sdk/devices/LPC5536/drivers/fsl_usart.c.obj
 .text.USART_TransferStopRingBuffer
                0x0000000000000000       0x74 CMakeFiles/freertos_hello.elf.dir/project/sdk/devices/LPC5536/drivers/fsl_usart.c.obj
 .text.USART_Init
                0x0000000000000000      0x1e8 CMakeFiles/freertos_hello.elf.dir/project/sdk/devices/LPC5536/drivers/fsl_usart.c.obj
 .text.USART_Deinit
                0x0000000000000000       0x6c CMakeFiles/freertos_hello.elf.dir/project/sdk/devices/LPC5536/drivers/fsl_usart.c.obj
 .text.USART_GetDefaultConfig
                0x0000000000000000       0xb0 CMakeFiles/freertos_hello.elf.dir/project/sdk/devices/LPC5536/drivers/fsl_usart.c.obj
 .text.USART_CalcTimeoutConfig
                0x0000000000000000       0xc8 CMakeFiles/freertos_hello.elf.dir/project/sdk/devices/LPC5536/drivers/fsl_usart.c.obj
 .text.USART_SetRxTimeoutConfig
                0x0000000000000000       0x68 CMakeFiles/freertos_hello.elf.dir/project/sdk/devices/LPC5536/drivers/fsl_usart.c.obj
 .text.USART_SetBaudRate
                0x0000000000000000      0x19c CMakeFiles/freertos_hello.elf.dir/project/sdk/devices/LPC5536/drivers/fsl_usart.c.obj
 .text.USART_Enable32kMode
                0x0000000000000000       0x98 CMakeFiles/freertos_hello.elf.dir/project/sdk/devices/LPC5536/drivers/fsl_usart.c.obj
 .text.USART_Enable9bitMode
                0x0000000000000000       0x70 CMakeFiles/freertos_hello.elf.dir/project/sdk/devices/LPC5536/drivers/fsl_usart.c.obj
 .text.USART_SendAddress
                0x0000000000000000       0x40 CMakeFiles/freertos_hello.elf.dir/project/sdk/devices/LPC5536/drivers/fsl_usart.c.obj
 .text.USART_ReadBlocking
                0x0000000000000000      0x114 CMakeFiles/freertos_hello.elf.dir/project/sdk/devices/LPC5536/drivers/fsl_usart.c.obj
 .text.USART_TransferCreateHandle
                0x0000000000000000       0xd4 CMakeFiles/freertos_hello.elf.dir/project/sdk/devices/LPC5536/drivers/fsl_usart.c.obj
 .text.USART_TransferSendNonBlocking
                0x0000000000000000       0xe0 CMakeFiles/freertos_hello.elf.dir/project/sdk/devices/LPC5536/drivers/fsl_usart.c.obj
 .text.USART_TransferAbortSend
                0x0000000000000000       0x58 CMakeFiles/freertos_hello.elf.dir/project/sdk/devices/LPC5536/drivers/fsl_usart.c.obj
 .text.USART_TransferGetSendCount
                0x0000000000000000       0x7c CMakeFiles/freertos_hello.elf.dir/project/sdk/devices/LPC5536/drivers/fsl_usart.c.obj
 .text.USART_TransferReceiveNonBlocking
                0x0000000000000000      0x1fc CMakeFiles/freertos_hello.elf.dir/project/sdk/devices/LPC5536/drivers/fsl_usart.c.obj
 .text.USART_TransferAbortReceive
                0x0000000000000000       0x60 CMakeFiles/freertos_hello.elf.dir/project/sdk/devices/LPC5536/drivers/fsl_usart.c.obj
 .text.USART_TransferGetReceiveCount
                0x0000000000000000       0x6c CMakeFiles/freertos_hello.elf.dir/project/sdk/devices/LPC5536/drivers/fsl_usart.c.obj
 .text.USART_TransferHandleIRQ
                0x0000000000000000      0x448 CMakeFiles/freertos_hello.elf.dir/project/sdk/devices/LPC5536/drivers/fsl_usart.c.obj
 .rodata.__func__.20
                0x0000000000000000       0x12 CMakeFiles/freertos_hello.elf.dir/project/sdk/devices/LPC5536/drivers/fsl_usart.c.obj
 .rodata.__func__.19
                0x0000000000000000       0x24 CMakeFiles/freertos_hello.elf.dir/project/sdk/devices/LPC5536/drivers/fsl_usart.c.obj
 .rodata.__func__.18
                0x0000000000000000       0x21 CMakeFiles/freertos_hello.elf.dir/project/sdk/devices/LPC5536/drivers/fsl_usart.c.obj
 .rodata.__func__.17
                0x0000000000000000       0x1e CMakeFiles/freertos_hello.elf.dir/project/sdk/devices/LPC5536/drivers/fsl_usart.c.obj
 .rodata.__func__.16
                0x0000000000000000       0x1d CMakeFiles/freertos_hello.elf.dir/project/sdk/devices/LPC5536/drivers/fsl_usart.c.obj
 .rodata.__func__.15
                0x0000000000000000        0xb CMakeFiles/freertos_hello.elf.dir/project/sdk/devices/LPC5536/drivers/fsl_usart.c.obj
 .rodata.__func__.14
                0x0000000000000000        0xd CMakeFiles/freertos_hello.elf.dir/project/sdk/devices/LPC5536/drivers/fsl_usart.c.obj
 .rodata.__func__.13
                0x0000000000000000       0x17 CMakeFiles/freertos_hello.elf.dir/project/sdk/devices/LPC5536/drivers/fsl_usart.c.obj
 .rodata.__func__.12
                0x0000000000000000       0x12 CMakeFiles/freertos_hello.elf.dir/project/sdk/devices/LPC5536/drivers/fsl_usart.c.obj
 .rodata.__func__.11
                0x0000000000000000       0x15 CMakeFiles/freertos_hello.elf.dir/project/sdk/devices/LPC5536/drivers/fsl_usart.c.obj
 .rodata.__func__.10
                0x0000000000000000       0x12 CMakeFiles/freertos_hello.elf.dir/project/sdk/devices/LPC5536/drivers/fsl_usart.c.obj
 .rodata.__func__.8
                0x0000000000000000       0x13 CMakeFiles/freertos_hello.elf.dir/project/sdk/devices/LPC5536/drivers/fsl_usart.c.obj
 .rodata.__func__.7
                0x0000000000000000       0x1b CMakeFiles/freertos_hello.elf.dir/project/sdk/devices/LPC5536/drivers/fsl_usart.c.obj
 .rodata.__func__.6
                0x0000000000000000       0x1e CMakeFiles/freertos_hello.elf.dir/project/sdk/devices/LPC5536/drivers/fsl_usart.c.obj
 .rodata.__func__.5
                0x0000000000000000       0x18 CMakeFiles/freertos_hello.elf.dir/project/sdk/devices/LPC5536/drivers/fsl_usart.c.obj
 .rodata.__func__.4
                0x0000000000000000       0x1b CMakeFiles/freertos_hello.elf.dir/project/sdk/devices/LPC5536/drivers/fsl_usart.c.obj
 .rodata.__func__.3
                0x0000000000000000       0x21 CMakeFiles/freertos_hello.elf.dir/project/sdk/devices/LPC5536/drivers/fsl_usart.c.obj
 .rodata.__func__.2
                0x0000000000000000       0x1b CMakeFiles/freertos_hello.elf.dir/project/sdk/devices/LPC5536/drivers/fsl_usart.c.obj
 .rodata.__func__.1
                0x0000000000000000       0x1e CMakeFiles/freertos_hello.elf.dir/project/sdk/devices/LPC5536/drivers/fsl_usart.c.obj
 .rodata.__func__.0
                0x0000000000000000       0x18 CMakeFiles/freertos_hello.elf.dir/project/sdk/devices/LPC5536/drivers/fsl_usart.c.obj
 .text          0x0000000000000000        0x0 CMakeFiles/freertos_hello.elf.dir/project/sdk/devices/LPC5536/drivers/fsl_gpio.c.obj
 .data          0x0000000000000000        0x0 CMakeFiles/freertos_hello.elf.dir/project/sdk/devices/LPC5536/drivers/fsl_gpio.c.obj
 .bss           0x0000000000000000        0x0 CMakeFiles/freertos_hello.elf.dir/project/sdk/devices/LPC5536/drivers/fsl_gpio.c.obj
 .rodata.s_gpioResets
                0x0000000000000000       0x10 CMakeFiles/freertos_hello.elf.dir/project/sdk/devices/LPC5536/drivers/fsl_gpio.c.obj
 .text.GPIO_PortInit
                0x0000000000000000       0x2c CMakeFiles/freertos_hello.elf.dir/project/sdk/devices/LPC5536/drivers/fsl_gpio.c.obj
 .text          0x0000000000000000        0x0 CMakeFiles/freertos_hello.elf.dir/project/sdk/devices/LPC5536/drivers/fsl_power.c.obj
 .data          0x0000000000000000        0x0 CMakeFiles/freertos_hello.elf.dir/project/sdk/devices/LPC5536/drivers/fsl_power.c.obj
 .bss           0x0000000000000000        0x0 CMakeFiles/freertos_hello.elf.dir/project/sdk/devices/LPC5536/drivers/fsl_power.c.obj
 .text.POWER_SetCorePowerSource
                0x0000000000000000      0x108 CMakeFiles/freertos_hello.elf.dir/project/sdk/devices/LPC5536/drivers/fsl_power.c.obj
 .text.POWER_GetCorePowerSource
                0x0000000000000000       0x64 CMakeFiles/freertos_hello.elf.dir/project/sdk/devices/LPC5536/drivers/fsl_power.c.obj
 .text.POWER_CorePowerSourceControl
                0x0000000000000000       0xf8 CMakeFiles/freertos_hello.elf.dir/project/sdk/devices/LPC5536/drivers/fsl_power.c.obj
 .text.POWER_GetSRAMPowerMode
                0x0000000000000000      0x14c CMakeFiles/freertos_hello.elf.dir/project/sdk/devices/LPC5536/drivers/fsl_power.c.obj
 .text.POWER_SRAMPowerModeControl
                0x0000000000000000      0x104 CMakeFiles/freertos_hello.elf.dir/project/sdk/devices/LPC5536/drivers/fsl_power.c.obj
 .text.POWER_EnterSleep
                0x0000000000000000       0x40 CMakeFiles/freertos_hello.elf.dir/project/sdk/devices/LPC5536/drivers/fsl_power.c.obj
 .text.POWER_EnterDeepSleep
                0x0000000000000000       0xe8 CMakeFiles/freertos_hello.elf.dir/project/sdk/devices/LPC5536/drivers/fsl_power.c.obj
 .text.POWER_EnterPowerDown
                0x0000000000000000      0x14c CMakeFiles/freertos_hello.elf.dir/project/sdk/devices/LPC5536/drivers/fsl_power.c.obj
 .text.POWER_EnterDeepPowerDown
                0x0000000000000000       0xac CMakeFiles/freertos_hello.elf.dir/project/sdk/devices/LPC5536/drivers/fsl_power.c.obj
 .text.POWER_SetWakeUpPins
                0x0000000000000000       0x54 CMakeFiles/freertos_hello.elf.dir/project/sdk/devices/LPC5536/drivers/fsl_power.c.obj
 .text.POWER_GetWakeUpCause
                0x0000000000000000      0x208 CMakeFiles/freertos_hello.elf.dir/project/sdk/devices/LPC5536/drivers/fsl_power.c.obj
 .text.POWER_WaitLDOCoreInit
                0x0000000000000000       0x30 CMakeFiles/freertos_hello.elf.dir/project/sdk/devices/LPC5536/drivers/fsl_power.c.obj
 .text.POWER_SRAMPowerUpDelay
                0x0000000000000000       0x30 CMakeFiles/freertos_hello.elf.dir/project/sdk/devices/LPC5536/drivers/fsl_power.c.obj
 .text.POWER_PowerCycleCpu
                0x0000000000000000       0x2c CMakeFiles/freertos_hello.elf.dir/project/sdk/devices/LPC5536/drivers/fsl_power.c.obj
 .text.POWER_SetLowPowerMode
                0x0000000000000000      0x690 CMakeFiles/freertos_hello.elf.dir/project/sdk/devices/LPC5536/drivers/fsl_power.c.obj
 .text.POWER_WakeUpIOCtrl
                0x0000000000000000      0x2fc CMakeFiles/freertos_hello.elf.dir/project/sdk/devices/LPC5536/drivers/fsl_power.c.obj
 .text.POWER_SetLdoAoLdoMemVoltage
                0x0000000000000000      0x104 CMakeFiles/freertos_hello.elf.dir/project/sdk/devices/LPC5536/drivers/fsl_power.c.obj
 .text.POWER_SRAMSetRegister
                0x0000000000000000      0x1b4 CMakeFiles/freertos_hello.elf.dir/project/sdk/devices/LPC5536/drivers/fsl_power.c.obj
 .text.POWER_SRAMActiveToLightSleep
                0x0000000000000000       0x1c CMakeFiles/freertos_hello.elf.dir/project/sdk/devices/LPC5536/drivers/fsl_power.c.obj
 .text.POWER_SRAMActiveToDeepSleep
                0x0000000000000000       0x1c CMakeFiles/freertos_hello.elf.dir/project/sdk/devices/LPC5536/drivers/fsl_power.c.obj
 .text.POWER_SRAMActiveToShutDown
                0x0000000000000000       0x1c CMakeFiles/freertos_hello.elf.dir/project/sdk/devices/LPC5536/drivers/fsl_power.c.obj
 .text.POWER_SRAMLightSleepToActive
                0x0000000000000000       0x2a CMakeFiles/freertos_hello.elf.dir/project/sdk/devices/LPC5536/drivers/fsl_power.c.obj
 .text.POWER_SRAMDeepSleepToActive
                0x0000000000000000       0x2a CMakeFiles/freertos_hello.elf.dir/project/sdk/devices/LPC5536/drivers/fsl_power.c.obj
 .text.POWER_SRAMShutDownToActive
                0x0000000000000000       0x2a CMakeFiles/freertos_hello.elf.dir/project/sdk/devices/LPC5536/drivers/fsl_power.c.obj
 .text.POWER_SetSystemClock12MHZ
                0x0000000000000000       0xe0 CMakeFiles/freertos_hello.elf.dir/project/sdk/devices/LPC5536/drivers/fsl_power.c.obj
 .text          0x0000000000000000        0x0 CMakeFiles/freertos_hello.elf.dir/project/sdk/devices/LPC5536/drivers/fsl_reset.c.obj
 .data          0x0000000000000000        0x0 CMakeFiles/freertos_hello.elf.dir/project/sdk/devices/LPC5536/drivers/fsl_reset.c.obj
 .bss           0x0000000000000000        0x0 CMakeFiles/freertos_hello.elf.dir/project/sdk/devices/LPC5536/drivers/fsl_reset.c.obj
 .rodata        0x0000000000000000       0x41 CMakeFiles/freertos_hello.elf.dir/project/sdk/devices/LPC5536/drivers/fsl_reset.c.obj
 .text.RESET_SetPeripheralReset
                0x0000000000000000       0x70 CMakeFiles/freertos_hello.elf.dir/project/sdk/devices/LPC5536/drivers/fsl_reset.c.obj
 .text.RESET_ClearPeripheralReset
                0x0000000000000000       0x74 CMakeFiles/freertos_hello.elf.dir/project/sdk/devices/LPC5536/drivers/fsl_reset.c.obj
 .text.RESET_PeripheralReset
                0x0000000000000000       0x1c CMakeFiles/freertos_hello.elf.dir/project/sdk/devices/LPC5536/drivers/fsl_reset.c.obj
 .rodata.__func__.1
                0x0000000000000000       0x19 CMakeFiles/freertos_hello.elf.dir/project/sdk/devices/LPC5536/drivers/fsl_reset.c.obj
 .rodata.__func__.0
                0x0000000000000000       0x1b CMakeFiles/freertos_hello.elf.dir/project/sdk/devices/LPC5536/drivers/fsl_reset.c.obj
 .debug_info    0x0000000000000000     0x1180 CMakeFiles/freertos_hello.elf.dir/project/sdk/devices/LPC5536/drivers/fsl_reset.c.obj
 .debug_abbrev  0x0000000000000000      0x162 CMakeFiles/freertos_hello.elf.dir/project/sdk/devices/LPC5536/drivers/fsl_reset.c.obj
 .debug_aranges
                0x0000000000000000       0x30 CMakeFiles/freertos_hello.elf.dir/project/sdk/devices/LPC5536/drivers/fsl_reset.c.obj
 .debug_rnglists
                0x0000000000000000       0x1f CMakeFiles/freertos_hello.elf.dir/project/sdk/devices/LPC5536/drivers/fsl_reset.c.obj
 .debug_line    0x0000000000000000      0x1f9 CMakeFiles/freertos_hello.elf.dir/project/sdk/devices/LPC5536/drivers/fsl_reset.c.obj
 .debug_str     0x0000000000000000     0x12ee CMakeFiles/freertos_hello.elf.dir/project/sdk/devices/LPC5536/drivers/fsl_reset.c.obj
 .comment       0x0000000000000000       0x46 CMakeFiles/freertos_hello.elf.dir/project/sdk/devices/LPC5536/drivers/fsl_reset.c.obj
 .debug_frame   0x0000000000000000       0x7c CMakeFiles/freertos_hello.elf.dir/project/sdk/devices/LPC5536/drivers/fsl_reset.c.obj
 .ARM.attributes
                0x0000000000000000       0x3a CMakeFiles/freertos_hello.elf.dir/project/sdk/devices/LPC5536/drivers/fsl_reset.c.obj
 .text          0x0000000000000000        0x0 CMakeFiles/freertos_hello.elf.dir/project/sdk/rtos/freertos/freertos-kernel/croutine.c.obj
 .data          0x0000000000000000        0x0 CMakeFiles/freertos_hello.elf.dir/project/sdk/rtos/freertos/freertos-kernel/croutine.c.obj
 .bss           0x0000000000000000        0x0 CMakeFiles/freertos_hello.elf.dir/project/sdk/rtos/freertos/freertos-kernel/croutine.c.obj
 .debug_info    0x0000000000000000       0x6c CMakeFiles/freertos_hello.elf.dir/project/sdk/rtos/freertos/freertos-kernel/croutine.c.obj
 .debug_abbrev  0x0000000000000000       0x26 CMakeFiles/freertos_hello.elf.dir/project/sdk/rtos/freertos/freertos-kernel/croutine.c.obj
 .debug_aranges
                0x0000000000000000       0x18 CMakeFiles/freertos_hello.elf.dir/project/sdk/rtos/freertos/freertos-kernel/croutine.c.obj
 .debug_line    0x0000000000000000       0x56 CMakeFiles/freertos_hello.elf.dir/project/sdk/rtos/freertos/freertos-kernel/croutine.c.obj
 .debug_str     0x0000000000000000      0x1cd CMakeFiles/freertos_hello.elf.dir/project/sdk/rtos/freertos/freertos-kernel/croutine.c.obj
 .comment       0x0000000000000000       0x46 CMakeFiles/freertos_hello.elf.dir/project/sdk/rtos/freertos/freertos-kernel/croutine.c.obj
 .ARM.attributes
                0x0000000000000000       0x3a CMakeFiles/freertos_hello.elf.dir/project/sdk/rtos/freertos/freertos-kernel/croutine.c.obj
 .text          0x0000000000000000        0x0 CMakeFiles/freertos_hello.elf.dir/project/sdk/rtos/freertos/freertos-kernel/event_groups.c.obj
 .data          0x0000000000000000        0x0 CMakeFiles/freertos_hello.elf.dir/project/sdk/rtos/freertos/freertos-kernel/event_groups.c.obj
 .bss           0x0000000000000000        0x0 CMakeFiles/freertos_hello.elf.dir/project/sdk/rtos/freertos/freertos-kernel/event_groups.c.obj
 .text.xEventGroupCreate
                0x0000000000000000       0x2e CMakeFiles/freertos_hello.elf.dir/project/sdk/rtos/freertos/freertos-kernel/event_groups.c.obj
 .text.xEventGroupSync
                0x0000000000000000      0x120 CMakeFiles/freertos_hello.elf.dir/project/sdk/rtos/freertos/freertos-kernel/event_groups.c.obj
 .text.xEventGroupWaitBits
                0x0000000000000000      0x152 CMakeFiles/freertos_hello.elf.dir/project/sdk/rtos/freertos/freertos-kernel/event_groups.c.obj
 .text.xEventGroupClearBits
                0x0000000000000000       0x52 CMakeFiles/freertos_hello.elf.dir/project/sdk/rtos/freertos/freertos-kernel/event_groups.c.obj
 .text.xEventGroupClearBitsFromISR
                0x0000000000000000       0x28 CMakeFiles/freertos_hello.elf.dir/project/sdk/rtos/freertos/freertos-kernel/event_groups.c.obj
 .text.xEventGroupGetBitsFromISR
                0x0000000000000000       0x28 CMakeFiles/freertos_hello.elf.dir/project/sdk/rtos/freertos/freertos-kernel/event_groups.c.obj
 .text.xEventGroupSetBits
                0x0000000000000000       0xf8 CMakeFiles/freertos_hello.elf.dir/project/sdk/rtos/freertos/freertos-kernel/event_groups.c.obj
 .text.vEventGroupDelete
                0x0000000000000000       0x62 CMakeFiles/freertos_hello.elf.dir/project/sdk/rtos/freertos/freertos-kernel/event_groups.c.obj
 .text.vEventGroupSetBitsCallback
                0x0000000000000000       0x1a CMakeFiles/freertos_hello.elf.dir/project/sdk/rtos/freertos/freertos-kernel/event_groups.c.obj
 .text.vEventGroupClearBitsCallback
                0x0000000000000000       0x1a CMakeFiles/freertos_hello.elf.dir/project/sdk/rtos/freertos/freertos-kernel/event_groups.c.obj
 .text.prvTestWaitCondition
                0x0000000000000000       0x44 CMakeFiles/freertos_hello.elf.dir/project/sdk/rtos/freertos/freertos-kernel/event_groups.c.obj
 .text.xEventGroupSetBitsFromISR
                0x0000000000000000       0x28 CMakeFiles/freertos_hello.elf.dir/project/sdk/rtos/freertos/freertos-kernel/event_groups.c.obj
 .text.uxEventGroupGetNumber
                0x0000000000000000       0x2c CMakeFiles/freertos_hello.elf.dir/project/sdk/rtos/freertos/freertos-kernel/event_groups.c.obj
 .text.vEventGroupSetNumber
                0x0000000000000000       0x1c CMakeFiles/freertos_hello.elf.dir/project/sdk/rtos/freertos/freertos-kernel/event_groups.c.obj
 .debug_info    0x0000000000000000      0x880 CMakeFiles/freertos_hello.elf.dir/project/sdk/rtos/freertos/freertos-kernel/event_groups.c.obj
 .debug_abbrev  0x0000000000000000      0x24e CMakeFiles/freertos_hello.elf.dir/project/sdk/rtos/freertos/freertos-kernel/event_groups.c.obj
 .debug_aranges
                0x0000000000000000       0x88 CMakeFiles/freertos_hello.elf.dir/project/sdk/rtos/freertos/freertos-kernel/event_groups.c.obj
 .debug_rnglists
                0x0000000000000000       0x64 CMakeFiles/freertos_hello.elf.dir/project/sdk/rtos/freertos/freertos-kernel/event_groups.c.obj
 .debug_line    0x0000000000000000      0x597 CMakeFiles/freertos_hello.elf.dir/project/sdk/rtos/freertos/freertos-kernel/event_groups.c.obj
 .debug_str     0x0000000000000000      0x707 CMakeFiles/freertos_hello.elf.dir/project/sdk/rtos/freertos/freertos-kernel/event_groups.c.obj
 .comment       0x0000000000000000       0x46 CMakeFiles/freertos_hello.elf.dir/project/sdk/rtos/freertos/freertos-kernel/event_groups.c.obj
 .debug_frame   0x0000000000000000      0x214 CMakeFiles/freertos_hello.elf.dir/project/sdk/rtos/freertos/freertos-kernel/event_groups.c.obj
 .ARM.attributes
                0x0000000000000000       0x3a CMakeFiles/freertos_hello.elf.dir/project/sdk/rtos/freertos/freertos-kernel/event_groups.c.obj
 .text          0x0000000000000000        0x0 CMakeFiles/freertos_hello.elf.dir/project/sdk/rtos/freertos/freertos-kernel/list.c.obj
 .data          0x0000000000000000        0x0 CMakeFiles/freertos_hello.elf.dir/project/sdk/rtos/freertos/freertos-kernel/list.c.obj
 .bss           0x0000000000000000        0x0 CMakeFiles/freertos_hello.elf.dir/project/sdk/rtos/freertos/freertos-kernel/list.c.obj
 .text.vListInsertEnd
                0x0000000000000000       0x48 CMakeFiles/freertos_hello.elf.dir/project/sdk/rtos/freertos/freertos-kernel/list.c.obj
 .text          0x0000000000000000        0x0 CMakeFiles/freertos_hello.elf.dir/project/sdk/rtos/freertos/freertos-kernel/queue.c.obj
 .data          0x0000000000000000        0x0 CMakeFiles/freertos_hello.elf.dir/project/sdk/rtos/freertos/freertos-kernel/queue.c.obj
 .bss           0x0000000000000000        0x0 CMakeFiles/freertos_hello.elf.dir/project/sdk/rtos/freertos/freertos-kernel/queue.c.obj
 .text.prvInitialiseMutex
                0x0000000000000000       0x34 CMakeFiles/freertos_hello.elf.dir/project/sdk/rtos/freertos/freertos-kernel/queue.c.obj
 .text.xQueueCreateMutex
                0x0000000000000000       0x30 CMakeFiles/freertos_hello.elf.dir/project/sdk/rtos/freertos/freertos-kernel/queue.c.obj
 .text.xQueueGiveMutexRecursive
                0x0000000000000000       0x5a CMakeFiles/freertos_hello.elf.dir/project/sdk/rtos/freertos/freertos-kernel/queue.c.obj
 .text.xQueueTakeMutexRecursive
                0x0000000000000000       0x5e CMakeFiles/freertos_hello.elf.dir/project/sdk/rtos/freertos/freertos-kernel/queue.c.obj
 .text.xQueueCreateCountingSemaphore
                0x0000000000000000       0x4e CMakeFiles/freertos_hello.elf.dir/project/sdk/rtos/freertos/freertos-kernel/queue.c.obj
 .text.xQueueGenericSend
                0x0000000000000000      0x19a CMakeFiles/freertos_hello.elf.dir/project/sdk/rtos/freertos/freertos-kernel/queue.c.obj
 .text.xQueueGenericSendFromISR
                0x0000000000000000      0x108 CMakeFiles/freertos_hello.elf.dir/project/sdk/rtos/freertos/freertos-kernel/queue.c.obj
 .text.xQueueGiveFromISR
                0x0000000000000000       0xec CMakeFiles/freertos_hello.elf.dir/project/sdk/rtos/freertos/freertos-kernel/queue.c.obj
 .text.xQueueSemaphoreTake
                0x0000000000000000      0x1b8 CMakeFiles/freertos_hello.elf.dir/project/sdk/rtos/freertos/freertos-kernel/queue.c.obj
 .text.xQueuePeek
                0x0000000000000000      0x17c CMakeFiles/freertos_hello.elf.dir/project/sdk/rtos/freertos/freertos-kernel/queue.c.obj
 .text.xQueueReceiveFromISR
                0x0000000000000000       0xe0 CMakeFiles/freertos_hello.elf.dir/project/sdk/rtos/freertos/freertos-kernel/queue.c.obj
 .text.xQueuePeekFromISR
                0x0000000000000000       0x88 CMakeFiles/freertos_hello.elf.dir/project/sdk/rtos/freertos/freertos-kernel/queue.c.obj
 .text.uxQueueMessagesWaiting
                0x0000000000000000       0x2e CMakeFiles/freertos_hello.elf.dir/project/sdk/rtos/freertos/freertos-kernel/queue.c.obj
 .text.uxQueueSpacesAvailable
                0x0000000000000000       0x38 CMakeFiles/freertos_hello.elf.dir/project/sdk/rtos/freertos/freertos-kernel/queue.c.obj
 .text.uxQueueMessagesWaitingFromISR
                0x0000000000000000       0x2a CMakeFiles/freertos_hello.elf.dir/project/sdk/rtos/freertos/freertos-kernel/queue.c.obj
 .text.vQueueDelete
                0x0000000000000000       0x2e CMakeFiles/freertos_hello.elf.dir/project/sdk/rtos/freertos/freertos-kernel/queue.c.obj
 .text.uxQueueGetQueueNumber
                0x0000000000000000       0x18 CMakeFiles/freertos_hello.elf.dir/project/sdk/rtos/freertos/freertos-kernel/queue.c.obj
 .text.vQueueSetQueueNumber
                0x0000000000000000       0x1c CMakeFiles/freertos_hello.elf.dir/project/sdk/rtos/freertos/freertos-kernel/queue.c.obj
 .text.ucQueueGetQueueType
                0x0000000000000000       0x1a CMakeFiles/freertos_hello.elf.dir/project/sdk/rtos/freertos/freertos-kernel/queue.c.obj
 .text.prvGetDisinheritPriorityAfterTimeout
                0x0000000000000000       0x30 CMakeFiles/freertos_hello.elf.dir/project/sdk/rtos/freertos/freertos-kernel/queue.c.obj
 .text.prvCopyDataToQueue
                0x0000000000000000       0xd4 CMakeFiles/freertos_hello.elf.dir/project/sdk/rtos/freertos/freertos-kernel/queue.c.obj
 .text.xQueueIsQueueEmptyFromISR
                0x0000000000000000       0x36 CMakeFiles/freertos_hello.elf.dir/project/sdk/rtos/freertos/freertos-kernel/queue.c.obj
 .text.prvIsQueueFull
                0x0000000000000000       0x30 CMakeFiles/freertos_hello.elf.dir/project/sdk/rtos/freertos/freertos-kernel/queue.c.obj
 .text.xQueueIsQueueFullFromISR
                0x0000000000000000       0x3a CMakeFiles/freertos_hello.elf.dir/project/sdk/rtos/freertos/freertos-kernel/queue.c.obj
 .text.pcQueueGetName
                0x0000000000000000       0x58 CMakeFiles/freertos_hello.elf.dir/project/sdk/rtos/freertos/freertos-kernel/queue.c.obj
 .text.vQueueUnregisterQueue
                0x0000000000000000       0x60 CMakeFiles/freertos_hello.elf.dir/project/sdk/rtos/freertos/freertos-kernel/queue.c.obj
 .text          0x0000000000000000        0x0 CMakeFiles/freertos_hello.elf.dir/project/sdk/rtos/freertos/freertos-kernel/stream_buffer.c.obj
 .data          0x0000000000000000        0x0 CMakeFiles/freertos_hello.elf.dir/project/sdk/rtos/freertos/freertos-kernel/stream_buffer.c.obj
 .bss           0x0000000000000000        0x0 CMakeFiles/freertos_hello.elf.dir/project/sdk/rtos/freertos/freertos-kernel/stream_buffer.c.obj
 .text.xStreamBufferGenericCreate
                0x0000000000000000       0x9e CMakeFiles/freertos_hello.elf.dir/project/sdk/rtos/freertos/freertos-kernel/stream_buffer.c.obj
 .text.vStreamBufferDelete
                0x0000000000000000       0x40 CMakeFiles/freertos_hello.elf.dir/project/sdk/rtos/freertos/freertos-kernel/stream_buffer.c.obj
 .text.xStreamBufferReset
                0x0000000000000000       0x7c CMakeFiles/freertos_hello.elf.dir/project/sdk/rtos/freertos/freertos-kernel/stream_buffer.c.obj
 .text.xStreamBufferSetTriggerLevel
                0x0000000000000000       0x4a CMakeFiles/freertos_hello.elf.dir/project/sdk/rtos/freertos/freertos-kernel/stream_buffer.c.obj
 .text.xStreamBufferSpacesAvailable
                0x0000000000000000       0x64 CMakeFiles/freertos_hello.elf.dir/project/sdk/rtos/freertos/freertos-kernel/stream_buffer.c.obj
 .text.xStreamBufferBytesAvailable
                0x0000000000000000       0x2c CMakeFiles/freertos_hello.elf.dir/project/sdk/rtos/freertos/freertos-kernel/stream_buffer.c.obj
 .text.xStreamBufferSend
                0x0000000000000000      0x162 CMakeFiles/freertos_hello.elf.dir/project/sdk/rtos/freertos/freertos-kernel/stream_buffer.c.obj
 .text.xStreamBufferSendFromISR
                0x0000000000000000       0xae CMakeFiles/freertos_hello.elf.dir/project/sdk/rtos/freertos/freertos-kernel/stream_buffer.c.obj
 .text.prvWriteMessageToBuffer
                0x0000000000000000       0x82 CMakeFiles/freertos_hello.elf.dir/project/sdk/rtos/freertos/freertos-kernel/stream_buffer.c.obj
 .text.xStreamBufferReceive
                0x0000000000000000      0x106 CMakeFiles/freertos_hello.elf.dir/project/sdk/rtos/freertos/freertos-kernel/stream_buffer.c.obj
 .text.xStreamBufferNextMessageLengthBytes
                0x0000000000000000       0x6c CMakeFiles/freertos_hello.elf.dir/project/sdk/rtos/freertos/freertos-kernel/stream_buffer.c.obj
 .text.xStreamBufferReceiveFromISR
                0x0000000000000000       0xa6 CMakeFiles/freertos_hello.elf.dir/project/sdk/rtos/freertos/freertos-kernel/stream_buffer.c.obj
 .text.prvReadMessageFromBuffer
                0x0000000000000000       0x7a CMakeFiles/freertos_hello.elf.dir/project/sdk/rtos/freertos/freertos-kernel/stream_buffer.c.obj
 .text.xStreamBufferIsEmpty
                0x0000000000000000       0x3e CMakeFiles/freertos_hello.elf.dir/project/sdk/rtos/freertos/freertos-kernel/stream_buffer.c.obj
 .text.xStreamBufferIsFull
                0x0000000000000000       0x52 CMakeFiles/freertos_hello.elf.dir/project/sdk/rtos/freertos/freertos-kernel/stream_buffer.c.obj
 .text.xStreamBufferSendCompletedFromISR
                0x0000000000000000       0x60 CMakeFiles/freertos_hello.elf.dir/project/sdk/rtos/freertos/freertos-kernel/stream_buffer.c.obj
 .text.xStreamBufferReceiveCompletedFromISR
                0x0000000000000000       0x60 CMakeFiles/freertos_hello.elf.dir/project/sdk/rtos/freertos/freertos-kernel/stream_buffer.c.obj
 .text.prvWriteBytesToBuffer
                0x0000000000000000       0xb0 CMakeFiles/freertos_hello.elf.dir/project/sdk/rtos/freertos/freertos-kernel/stream_buffer.c.obj
 .text.prvReadBytesFromBuffer
                0x0000000000000000       0xaa CMakeFiles/freertos_hello.elf.dir/project/sdk/rtos/freertos/freertos-kernel/stream_buffer.c.obj
 .text.prvBytesInBuffer
                0x0000000000000000       0x40 CMakeFiles/freertos_hello.elf.dir/project/sdk/rtos/freertos/freertos-kernel/stream_buffer.c.obj
 .text.prvInitialiseNewStreamBuffer
                0x0000000000000000       0x58 CMakeFiles/freertos_hello.elf.dir/project/sdk/rtos/freertos/freertos-kernel/stream_buffer.c.obj
 .text.uxStreamBufferGetStreamBufferNumber
                0x0000000000000000       0x18 CMakeFiles/freertos_hello.elf.dir/project/sdk/rtos/freertos/freertos-kernel/stream_buffer.c.obj
 .text.vStreamBufferSetStreamBufferNumber
                0x0000000000000000       0x1c CMakeFiles/freertos_hello.elf.dir/project/sdk/rtos/freertos/freertos-kernel/stream_buffer.c.obj
 .text.ucStreamBufferGetStreamBufferType
                0x0000000000000000       0x1e CMakeFiles/freertos_hello.elf.dir/project/sdk/rtos/freertos/freertos-kernel/stream_buffer.c.obj
 .debug_info    0x0000000000000000      0xdc9 CMakeFiles/freertos_hello.elf.dir/project/sdk/rtos/freertos/freertos-kernel/stream_buffer.c.obj
 .debug_abbrev  0x0000000000000000      0x274 CMakeFiles/freertos_hello.elf.dir/project/sdk/rtos/freertos/freertos-kernel/stream_buffer.c.obj
 .debug_aranges
                0x0000000000000000       0xd8 CMakeFiles/freertos_hello.elf.dir/project/sdk/rtos/freertos/freertos-kernel/stream_buffer.c.obj
 .debug_rnglists
                0x0000000000000000       0xa5 CMakeFiles/freertos_hello.elf.dir/project/sdk/rtos/freertos/freertos-kernel/stream_buffer.c.obj
 .debug_line    0x0000000000000000      0x91e CMakeFiles/freertos_hello.elf.dir/project/sdk/rtos/freertos/freertos-kernel/stream_buffer.c.obj
 .debug_str     0x0000000000000000      0x966 CMakeFiles/freertos_hello.elf.dir/project/sdk/rtos/freertos/freertos-kernel/stream_buffer.c.obj
 .comment       0x0000000000000000       0x46 CMakeFiles/freertos_hello.elf.dir/project/sdk/rtos/freertos/freertos-kernel/stream_buffer.c.obj
 .debug_frame   0x0000000000000000      0x398 CMakeFiles/freertos_hello.elf.dir/project/sdk/rtos/freertos/freertos-kernel/stream_buffer.c.obj
 .ARM.attributes
                0x0000000000000000       0x3a CMakeFiles/freertos_hello.elf.dir/project/sdk/rtos/freertos/freertos-kernel/stream_buffer.c.obj
 .text          0x0000000000000000        0x0 CMakeFiles/freertos_hello.elf.dir/project/sdk/rtos/freertos/freertos-kernel/tasks.c.obj
 .data          0x0000000000000000        0x0 CMakeFiles/freertos_hello.elf.dir/project/sdk/rtos/freertos/freertos-kernel/tasks.c.obj
 .bss           0x0000000000000000        0x0 CMakeFiles/freertos_hello.elf.dir/project/sdk/rtos/freertos/freertos-kernel/tasks.c.obj
 .text.vTaskDelete
                0x0000000000000000       0xd0 CMakeFiles/freertos_hello.elf.dir/project/sdk/rtos/freertos/freertos-kernel/tasks.c.obj
 .text.xTaskDelayUntil
                0x0000000000000000       0xc4 CMakeFiles/freertos_hello.elf.dir/project/sdk/rtos/freertos/freertos-kernel/tasks.c.obj
 .text.eTaskGetState
                0x0000000000000000       0xd4 CMakeFiles/freertos_hello.elf.dir/project/sdk/rtos/freertos/freertos-kernel/tasks.c.obj
 .text.uxTaskPriorityGet
                0x0000000000000000       0x34 CMakeFiles/freertos_hello.elf.dir/project/sdk/rtos/freertos/freertos-kernel/tasks.c.obj
 .text.uxTaskPriorityGetFromISR
                0x0000000000000000       0x38 CMakeFiles/freertos_hello.elf.dir/project/sdk/rtos/freertos/freertos-kernel/tasks.c.obj
 .text.vTaskPrioritySet
                0x0000000000000000      0x170 CMakeFiles/freertos_hello.elf.dir/project/sdk/rtos/freertos/freertos-kernel/tasks.c.obj
 .text.vTaskSuspend
                0x0000000000000000       0xe8 CMakeFiles/freertos_hello.elf.dir/project/sdk/rtos/freertos/freertos-kernel/tasks.c.obj
 .text.prvTaskIsTaskSuspended
                0x0000000000000000       0x50 CMakeFiles/freertos_hello.elf.dir/project/sdk/rtos/freertos/freertos-kernel/tasks.c.obj
 .text.vTaskResume
                0x0000000000000000       0xf0 CMakeFiles/freertos_hello.elf.dir/project/sdk/rtos/freertos/freertos-kernel/tasks.c.obj
 .text.xTaskResumeFromISR
                0x0000000000000000      0x110 CMakeFiles/freertos_hello.elf.dir/project/sdk/rtos/freertos/freertos-kernel/tasks.c.obj
 .text.vTaskEndScheduler
                0x0000000000000000       0x1c CMakeFiles/freertos_hello.elf.dir/project/sdk/rtos/freertos/freertos-kernel/tasks.c.obj
 .text.xTaskGetTickCountFromISR
                0x0000000000000000       0x24 CMakeFiles/freertos_hello.elf.dir/project/sdk/rtos/freertos/freertos-kernel/tasks.c.obj
 .text.uxTaskGetNumberOfTasks
                0x0000000000000000       0x18 CMakeFiles/freertos_hello.elf.dir/project/sdk/rtos/freertos/freertos-kernel/tasks.c.obj
 .text.pcTaskGetName
                0x0000000000000000       0x38 CMakeFiles/freertos_hello.elf.dir/project/sdk/rtos/freertos/freertos-kernel/tasks.c.obj
 .text.uxTaskGetSystemState
                0x0000000000000000      0x11c CMakeFiles/freertos_hello.elf.dir/project/sdk/rtos/freertos/freertos-kernel/tasks.c.obj
 .text.xTaskCatchUpTicks
                0x0000000000000000       0x48 CMakeFiles/freertos_hello.elf.dir/project/sdk/rtos/freertos/freertos-kernel/tasks.c.obj
 .text.vTaskPlaceOnUnorderedEventList
                0x0000000000000000       0x90 CMakeFiles/freertos_hello.elf.dir/project/sdk/rtos/freertos/freertos-kernel/tasks.c.obj
 .text.vTaskRemoveFromUnorderedEventList
                0x0000000000000000      0x164 CMakeFiles/freertos_hello.elf.dir/project/sdk/rtos/freertos/freertos-kernel/tasks.c.obj
 .text.vTaskSetTimeOutState
                0x0000000000000000       0x40 CMakeFiles/freertos_hello.elf.dir/project/sdk/rtos/freertos/freertos-kernel/tasks.c.obj
 .text.uxTaskGetTaskNumber
                0x0000000000000000       0x2c CMakeFiles/freertos_hello.elf.dir/project/sdk/rtos/freertos/freertos-kernel/tasks.c.obj
 .text.vTaskSetTaskNumber
                0x0000000000000000       0x26 CMakeFiles/freertos_hello.elf.dir/project/sdk/rtos/freertos/freertos-kernel/tasks.c.obj
 .text.vTaskSetThreadLocalStoragePointer
                0x0000000000000000       0x50 CMakeFiles/freertos_hello.elf.dir/project/sdk/rtos/freertos/freertos-kernel/tasks.c.obj
 .text.pvTaskGetThreadLocalStoragePointer
                0x0000000000000000       0x50 CMakeFiles/freertos_hello.elf.dir/project/sdk/rtos/freertos/freertos-kernel/tasks.c.obj
 .text.vTaskGetInfo
                0x0000000000000000       0xcc CMakeFiles/freertos_hello.elf.dir/project/sdk/rtos/freertos/freertos-kernel/tasks.c.obj
 .text.prvListTasksWithinSingleList
                0x0000000000000000       0xa4 CMakeFiles/freertos_hello.elf.dir/project/sdk/rtos/freertos/freertos-kernel/tasks.c.obj
 .text.prvTaskCheckFreeStackSpace
                0x0000000000000000       0x38 CMakeFiles/freertos_hello.elf.dir/project/sdk/rtos/freertos/freertos-kernel/tasks.c.obj
 .text.xTaskGetCurrentTaskHandle
                0x0000000000000000       0x20 CMakeFiles/freertos_hello.elf.dir/project/sdk/rtos/freertos/freertos-kernel/tasks.c.obj
 .text.xTaskPriorityInherit
                0x0000000000000000      0x120 CMakeFiles/freertos_hello.elf.dir/project/sdk/rtos/freertos/freertos-kernel/tasks.c.obj
 .text.xTaskPriorityDisinherit
                0x0000000000000000      0x110 CMakeFiles/freertos_hello.elf.dir/project/sdk/rtos/freertos/freertos-kernel/tasks.c.obj
 .text.vTaskPriorityDisinheritAfterTimeout
                0x0000000000000000      0x138 CMakeFiles/freertos_hello.elf.dir/project/sdk/rtos/freertos/freertos-kernel/tasks.c.obj
 .text.uxTaskResetEventItemValue
                0x0000000000000000       0x30 CMakeFiles/freertos_hello.elf.dir/project/sdk/rtos/freertos/freertos-kernel/tasks.c.obj
 .text.pvTaskIncrementMutexHeldCount
                0x0000000000000000       0x28 CMakeFiles/freertos_hello.elf.dir/project/sdk/rtos/freertos/freertos-kernel/tasks.c.obj
 .text.ulTaskGenericNotifyTake
                0x0000000000000000       0xb0 CMakeFiles/freertos_hello.elf.dir/project/sdk/rtos/freertos/freertos-kernel/tasks.c.obj
 .text.xTaskGenericNotifyWait
                0x0000000000000000       0xe0 CMakeFiles/freertos_hello.elf.dir/project/sdk/rtos/freertos/freertos-kernel/tasks.c.obj
 .text.xTaskGenericNotify
                0x0000000000000000      0x1fc CMakeFiles/freertos_hello.elf.dir/project/sdk/rtos/freertos/freertos-kernel/tasks.c.obj
 .text.xTaskGenericNotifyFromISR
                0x0000000000000000      0x264 CMakeFiles/freertos_hello.elf.dir/project/sdk/rtos/freertos/freertos-kernel/tasks.c.obj
 .text.vTaskGenericNotifyGiveFromISR
                0x0000000000000000      0x1c0 CMakeFiles/freertos_hello.elf.dir/project/sdk/rtos/freertos/freertos-kernel/tasks.c.obj
 .text.xTaskGenericNotifyStateClear
                0x0000000000000000       0x64 CMakeFiles/freertos_hello.elf.dir/project/sdk/rtos/freertos/freertos-kernel/tasks.c.obj
 .text.ulTaskGenericNotifyValueClear
                0x0000000000000000       0x5c CMakeFiles/freertos_hello.elf.dir/project/sdk/rtos/freertos/freertos-kernel/tasks.c.obj
 .text          0x0000000000000000        0x0 CMakeFiles/freertos_hello.elf.dir/project/sdk/rtos/freertos/freertos-kernel/timers.c.obj
 .data          0x0000000000000000        0x0 CMakeFiles/freertos_hello.elf.dir/project/sdk/rtos/freertos/freertos-kernel/timers.c.obj
 .bss           0x0000000000000000        0x0 CMakeFiles/freertos_hello.elf.dir/project/sdk/rtos/freertos/freertos-kernel/timers.c.obj
 .text.xTimerCreate
                0x0000000000000000       0x42 CMakeFiles/freertos_hello.elf.dir/project/sdk/rtos/freertos/freertos-kernel/timers.c.obj
 .text.prvInitialiseNewTimer
                0x0000000000000000       0x62 CMakeFiles/freertos_hello.elf.dir/project/sdk/rtos/freertos/freertos-kernel/timers.c.obj
 .text.xTimerGenericCommand
                0x0000000000000000       0x8c CMakeFiles/freertos_hello.elf.dir/project/sdk/rtos/freertos/freertos-kernel/timers.c.obj
 .text.xTimerGetTimerDaemonTaskHandle
                0x0000000000000000       0x20 CMakeFiles/freertos_hello.elf.dir/project/sdk/rtos/freertos/freertos-kernel/timers.c.obj
 .text.xTimerGetPeriod
                0x0000000000000000       0x26 CMakeFiles/freertos_hello.elf.dir/project/sdk/rtos/freertos/freertos-kernel/timers.c.obj
 .text.vTimerSetReloadMode
                0x0000000000000000       0x58 CMakeFiles/freertos_hello.elf.dir/project/sdk/rtos/freertos/freertos-kernel/timers.c.obj
 .text.xTimerGetReloadMode
                0x0000000000000000       0x44 CMakeFiles/freertos_hello.elf.dir/project/sdk/rtos/freertos/freertos-kernel/timers.c.obj
 .text.uxTimerGetReloadMode
                0x0000000000000000       0x18 CMakeFiles/freertos_hello.elf.dir/project/sdk/rtos/freertos/freertos-kernel/timers.c.obj
 .text.xTimerGetExpiryTime
                0x0000000000000000       0x2a CMakeFiles/freertos_hello.elf.dir/project/sdk/rtos/freertos/freertos-kernel/timers.c.obj
 .text.pcTimerGetName
                0x0000000000000000       0x26 CMakeFiles/freertos_hello.elf.dir/project/sdk/rtos/freertos/freertos-kernel/timers.c.obj
 .text.xTimerIsTimerActive
                0x0000000000000000       0x44 CMakeFiles/freertos_hello.elf.dir/project/sdk/rtos/freertos/freertos-kernel/timers.c.obj
 .text.pvTimerGetTimerID
                0x0000000000000000       0x32 CMakeFiles/freertos_hello.elf.dir/project/sdk/rtos/freertos/freertos-kernel/timers.c.obj
 .text.vTimerSetTimerID
                0x0000000000000000       0x32 CMakeFiles/freertos_hello.elf.dir/project/sdk/rtos/freertos/freertos-kernel/timers.c.obj
 .text.xTimerPendFunctionCallFromISR
                0x0000000000000000       0x40 CMakeFiles/freertos_hello.elf.dir/project/sdk/rtos/freertos/freertos-kernel/timers.c.obj
 .text.xTimerPendFunctionCall
                0x0000000000000000       0x50 CMakeFiles/freertos_hello.elf.dir/project/sdk/rtos/freertos/freertos-kernel/timers.c.obj
 .text.uxTimerGetTimerNumber
                0x0000000000000000       0x18 CMakeFiles/freertos_hello.elf.dir/project/sdk/rtos/freertos/freertos-kernel/timers.c.obj
 .text.vTimerSetTimerNumber
                0x0000000000000000       0x1c CMakeFiles/freertos_hello.elf.dir/project/sdk/rtos/freertos/freertos-kernel/timers.c.obj
 .text          0x0000000000000000        0x0 CMakeFiles/freertos_hello.elf.dir/project/sdk/rtos/freertos/freertos-kernel/portable/GCC/ARM_CM33_NTZ/non_secure/port.c.obj
 .data          0x0000000000000000        0x0 CMakeFiles/freertos_hello.elf.dir/project/sdk/rtos/freertos/freertos-kernel/portable/GCC/ARM_CM33_NTZ/non_secure/port.c.obj
 .bss           0x0000000000000000        0x0 CMakeFiles/freertos_hello.elf.dir/project/sdk/rtos/freertos/freertos-kernel/portable/GCC/ARM_CM33_NTZ/non_secure/port.c.obj
 .text.vPortEndScheduler
                0x0000000000000000       0x20 CMakeFiles/freertos_hello.elf.dir/project/sdk/rtos/freertos/freertos-kernel/portable/GCC/ARM_CM33_NTZ/non_secure/port.c.obj
 .text.xPortIsInsideInterrupt
                0x0000000000000000       0x2a CMakeFiles/freertos_hello.elf.dir/project/sdk/rtos/freertos/freertos-kernel/portable/GCC/ARM_CM33_NTZ/non_secure/port.c.obj
 .text          0x0000000000000000        0x0 CMakeFiles/freertos_hello.elf.dir/project/sdk/rtos/freertos/freertos-kernel/portable/GCC/ARM_CM33_NTZ/non_secure/portasm.c.obj
 .data          0x0000000000000000        0x0 CMakeFiles/freertos_hello.elf.dir/project/sdk/rtos/freertos/freertos-kernel/portable/GCC/ARM_CM33_NTZ/non_secure/portasm.c.obj
 .bss           0x0000000000000000        0x0 CMakeFiles/freertos_hello.elf.dir/project/sdk/rtos/freertos/freertos-kernel/portable/GCC/ARM_CM33_NTZ/non_secure/portasm.c.obj
 .text.xIsPrivileged
                0x0000000000000000       0x14 CMakeFiles/freertos_hello.elf.dir/project/sdk/rtos/freertos/freertos-kernel/portable/GCC/ARM_CM33_NTZ/non_secure/portasm.c.obj
 .text.vRaisePrivilege
                0x0000000000000000       0x10 CMakeFiles/freertos_hello.elf.dir/project/sdk/rtos/freertos/freertos-kernel/portable/GCC/ARM_CM33_NTZ/non_secure/portasm.c.obj
 .text.vResetPrivilege
                0x0000000000000000       0x10 CMakeFiles/freertos_hello.elf.dir/project/sdk/rtos/freertos/freertos-kernel/portable/GCC/ARM_CM33_NTZ/non_secure/portasm.c.obj
 .text          0x0000000000000000        0x0 CMakeFiles/freertos_hello.elf.dir/project/sdk/rtos/freertos/freertos-kernel/portable/MemMang/heap_4.c.obj
 .data          0x0000000000000000        0x0 CMakeFiles/freertos_hello.elf.dir/project/sdk/rtos/freertos/freertos-kernel/portable/MemMang/heap_4.c.obj
 .bss           0x0000000000000000        0x0 CMakeFiles/freertos_hello.elf.dir/project/sdk/rtos/freertos/freertos-kernel/portable/MemMang/heap_4.c.obj
 .rodata.xHeapStructSize
                0x0000000000000000        0x4 CMakeFiles/freertos_hello.elf.dir/project/sdk/rtos/freertos/freertos-kernel/portable/MemMang/heap_4.c.obj
 .text.xPortGetFreeHeapSize
                0x0000000000000000       0x18 CMakeFiles/freertos_hello.elf.dir/project/sdk/rtos/freertos/freertos-kernel/portable/MemMang/heap_4.c.obj
 .text.xPortGetMinimumEverFreeHeapSize
                0x0000000000000000       0x18 CMakeFiles/freertos_hello.elf.dir/project/sdk/rtos/freertos/freertos-kernel/portable/MemMang/heap_4.c.obj
 .text.vPortInitialiseBlocks
                0x0000000000000000        0xe CMakeFiles/freertos_hello.elf.dir/project/sdk/rtos/freertos/freertos-kernel/portable/MemMang/heap_4.c.obj
 .text.pvPortCalloc
                0x0000000000000000       0x60 CMakeFiles/freertos_hello.elf.dir/project/sdk/rtos/freertos/freertos-kernel/portable/MemMang/heap_4.c.obj
 .text.vPortGetHeapStats
                0x0000000000000000       0xbc CMakeFiles/freertos_hello.elf.dir/project/sdk/rtos/freertos/freertos-kernel/portable/MemMang/heap_4.c.obj
 .text          0x0000000000000000        0x0 CMakeFiles/freertos_hello.elf.dir/project/sdk/devices/LPC5536/utilities/fsl_sbrk.c.obj
 .data          0x0000000000000000        0x0 CMakeFiles/freertos_hello.elf.dir/project/sdk/devices/LPC5536/utilities/fsl_sbrk.c.obj
 .bss           0x0000000000000000        0x0 CMakeFiles/freertos_hello.elf.dir/project/sdk/devices/LPC5536/utilities/fsl_sbrk.c.obj
 .text._sbrk    0x0000000000000000       0x68 CMakeFiles/freertos_hello.elf.dir/project/sdk/devices/LPC5536/utilities/fsl_sbrk.c.obj
 .bss.heap_end.0
                0x0000000000000000        0x4 CMakeFiles/freertos_hello.elf.dir/project/sdk/devices/LPC5536/utilities/fsl_sbrk.c.obj
 .debug_info    0x0000000000000000      0x116 CMakeFiles/freertos_hello.elf.dir/project/sdk/devices/LPC5536/utilities/fsl_sbrk.c.obj
 .debug_abbrev  0x0000000000000000       0xd1 CMakeFiles/freertos_hello.elf.dir/project/sdk/devices/LPC5536/utilities/fsl_sbrk.c.obj
 .debug_aranges
                0x0000000000000000       0x20 CMakeFiles/freertos_hello.elf.dir/project/sdk/devices/LPC5536/utilities/fsl_sbrk.c.obj
 .debug_rnglists
                0x0000000000000000       0x13 CMakeFiles/freertos_hello.elf.dir/project/sdk/devices/LPC5536/utilities/fsl_sbrk.c.obj
 .debug_line    0x0000000000000000      0x178 CMakeFiles/freertos_hello.elf.dir/project/sdk/devices/LPC5536/utilities/fsl_sbrk.c.obj
 .debug_str     0x0000000000000000      0x21c CMakeFiles/freertos_hello.elf.dir/project/sdk/devices/LPC5536/utilities/fsl_sbrk.c.obj
 .comment       0x0000000000000000       0x46 CMakeFiles/freertos_hello.elf.dir/project/sdk/devices/LPC5536/utilities/fsl_sbrk.c.obj
 .debug_frame   0x0000000000000000       0x34 CMakeFiles/freertos_hello.elf.dir/project/sdk/devices/LPC5536/utilities/fsl_sbrk.c.obj
 .ARM.attributes
                0x0000000000000000       0x3a CMakeFiles/freertos_hello.elf.dir/project/sdk/devices/LPC5536/utilities/fsl_sbrk.c.obj
 .text          0x0000000000000000        0x0 CMakeFiles/freertos_hello.elf.dir/project/sdk/devices/LPC5536/utilities/fsl_syscall_stub.c.obj
 .data          0x0000000000000000        0x0 CMakeFiles/freertos_hello.elf.dir/project/sdk/devices/LPC5536/utilities/fsl_syscall_stub.c.obj
 .bss           0x0000000000000000        0x0 CMakeFiles/freertos_hello.elf.dir/project/sdk/devices/LPC5536/utilities/fsl_syscall_stub.c.obj
 .text._write   0x0000000000000000       0x22 CMakeFiles/freertos_hello.elf.dir/project/sdk/devices/LPC5536/utilities/fsl_syscall_stub.c.obj
 .text._read    0x0000000000000000       0x22 CMakeFiles/freertos_hello.elf.dir/project/sdk/devices/LPC5536/utilities/fsl_syscall_stub.c.obj
 .text._close   0x0000000000000000       0x1e CMakeFiles/freertos_hello.elf.dir/project/sdk/devices/LPC5536/utilities/fsl_syscall_stub.c.obj
 .text._lseek   0x0000000000000000       0x22 CMakeFiles/freertos_hello.elf.dir/project/sdk/devices/LPC5536/utilities/fsl_syscall_stub.c.obj
 .text._fstat   0x0000000000000000       0x20 CMakeFiles/freertos_hello.elf.dir/project/sdk/devices/LPC5536/utilities/fsl_syscall_stub.c.obj
 .text._getpid  0x0000000000000000       0x16 CMakeFiles/freertos_hello.elf.dir/project/sdk/devices/LPC5536/utilities/fsl_syscall_stub.c.obj
 .text._isatty  0x0000000000000000       0x1c CMakeFiles/freertos_hello.elf.dir/project/sdk/devices/LPC5536/utilities/fsl_syscall_stub.c.obj
 .text._kill    0x0000000000000000       0x20 CMakeFiles/freertos_hello.elf.dir/project/sdk/devices/LPC5536/utilities/fsl_syscall_stub.c.obj
 .debug_info    0x0000000000000000      0x41e CMakeFiles/freertos_hello.elf.dir/project/sdk/devices/LPC5536/utilities/fsl_syscall_stub.c.obj
 .debug_abbrev  0x0000000000000000      0x106 CMakeFiles/freertos_hello.elf.dir/project/sdk/devices/LPC5536/utilities/fsl_syscall_stub.c.obj
 .debug_aranges
                0x0000000000000000       0x58 CMakeFiles/freertos_hello.elf.dir/project/sdk/devices/LPC5536/utilities/fsl_syscall_stub.c.obj
 .debug_rnglists
                0x0000000000000000       0x3d CMakeFiles/freertos_hello.elf.dir/project/sdk/devices/LPC5536/utilities/fsl_syscall_stub.c.obj
 .debug_line    0x0000000000000000      0x250 CMakeFiles/freertos_hello.elf.dir/project/sdk/devices/LPC5536/utilities/fsl_syscall_stub.c.obj
 .debug_str     0x0000000000000000      0x370 CMakeFiles/freertos_hello.elf.dir/project/sdk/devices/LPC5536/utilities/fsl_syscall_stub.c.obj
 .comment       0x0000000000000000       0x46 CMakeFiles/freertos_hello.elf.dir/project/sdk/devices/LPC5536/utilities/fsl_syscall_stub.c.obj
 .debug_frame   0x0000000000000000      0x128 CMakeFiles/freertos_hello.elf.dir/project/sdk/devices/LPC5536/utilities/fsl_syscall_stub.c.obj
 .ARM.attributes
                0x0000000000000000       0x3a CMakeFiles/freertos_hello.elf.dir/project/sdk/devices/LPC5536/utilities/fsl_syscall_stub.c.obj
 .data          0x0000000000000000        0x0 CMakeFiles/freertos_hello.elf.dir/project/sdk/devices/LPC5536/utilities/fsl_memcpy.S.obj
 .bss           0x0000000000000000        0x0 CMakeFiles/freertos_hello.elf.dir/project/sdk/devices/LPC5536/utilities/fsl_memcpy.S.obj
 .text          0x0000000000000000        0x0 CMakeFiles/freertos_hello.elf.dir/project/sdk/devices/LPC5536/utilities/fsl_assert.c.obj
 .data          0x0000000000000000        0x0 CMakeFiles/freertos_hello.elf.dir/project/sdk/devices/LPC5536/utilities/fsl_assert.c.obj
 .bss           0x0000000000000000        0x0 CMakeFiles/freertos_hello.elf.dir/project/sdk/devices/LPC5536/utilities/fsl_assert.c.obj
 .text          0x0000000000000000        0x0 CMakeFiles/freertos_hello.elf.dir/project/sdk/devices/LPC5536/utilities/str/fsl_str.c.obj
 .data          0x0000000000000000        0x0 CMakeFiles/freertos_hello.elf.dir/project/sdk/devices/LPC5536/utilities/str/fsl_str.c.obj
 .bss           0x0000000000000000        0x0 CMakeFiles/freertos_hello.elf.dir/project/sdk/devices/LPC5536/utilities/str/fsl_str.c.obj
 .text.ScanIsWhiteSpace
                0x0000000000000000       0x44 CMakeFiles/freertos_hello.elf.dir/project/sdk/devices/LPC5536/utilities/str/fsl_str.c.obj
 .text.ScanIgnoreWhiteSpace
                0x0000000000000000       0x46 CMakeFiles/freertos_hello.elf.dir/project/sdk/devices/LPC5536/utilities/str/fsl_str.c.obj
 .text.StrFormatScanIsFormatStarting
                0x0000000000000000       0x36 CMakeFiles/freertos_hello.elf.dir/project/sdk/devices/LPC5536/utilities/str/fsl_str.c.obj
 .text.StrFormatScanGetBase
                0x0000000000000000       0x4c CMakeFiles/freertos_hello.elf.dir/project/sdk/devices/LPC5536/utilities/str/fsl_str.c.obj
 .text.StrFormatScanCheckSymbol
                0x0000000000000000       0x48 CMakeFiles/freertos_hello.elf.dir/project/sdk/devices/LPC5536/utilities/str/fsl_str.c.obj
 .text.StrFormatScanFillInteger
                0x0000000000000000       0x46 CMakeFiles/freertos_hello.elf.dir/project/sdk/devices/LPC5536/utilities/str/fsl_str.c.obj
 .text.StrFormatScanfStringHandling
                0x0000000000000000      0x18a CMakeFiles/freertos_hello.elf.dir/project/sdk/devices/LPC5536/utilities/str/fsl_str.c.obj
 .text.StrFormatScanf
                0x0000000000000000      0x2e6 CMakeFiles/freertos_hello.elf.dir/project/sdk/devices/LPC5536/utilities/str/fsl_str.c.obj
 .text          0x0000000000000000        0x0 CMakeFiles/freertos_hello.elf.dir/project/sdk/devices/LPC5536/utilities/debug_console/fsl_debug_console.c.obj
 .data          0x0000000000000000        0x0 CMakeFiles/freertos_hello.elf.dir/project/sdk/devices/LPC5536/utilities/debug_console/fsl_debug_console.c.obj
 .bss           0x0000000000000000        0x0 CMakeFiles/freertos_hello.elf.dir/project/sdk/devices/LPC5536/utilities/debug_console/fsl_debug_console.c.obj
 .bss.s_debugConsoleReadWaitSemaphore
                0x0000000000000000        0x1 CMakeFiles/freertos_hello.elf.dir/project/sdk/devices/LPC5536/utilities/debug_console/fsl_debug_console.c.obj
 .text.DbgConsole_ReadOneCharacter
                0x0000000000000000       0x44 CMakeFiles/freertos_hello.elf.dir/project/sdk/devices/LPC5536/utilities/debug_console/fsl_debug_console.c.obj
 .text.DbgConsole_SendData
                0x0000000000000000       0x40 CMakeFiles/freertos_hello.elf.dir/project/sdk/devices/LPC5536/utilities/debug_console/fsl_debug_console.c.obj
 .text.DbgConsole_ReadLine
                0x0000000000000000       0xa8 CMakeFiles/freertos_hello.elf.dir/project/sdk/devices/LPC5536/utilities/debug_console/fsl_debug_console.c.obj
 .text.DbgConsole_ReadCharacter
                0x0000000000000000       0x44 CMakeFiles/freertos_hello.elf.dir/project/sdk/devices/LPC5536/utilities/debug_console/fsl_debug_console.c.obj
 .text.DbgConsole_Init
                0x0000000000000000      0x138 CMakeFiles/freertos_hello.elf.dir/project/sdk/devices/LPC5536/utilities/debug_console/fsl_debug_console.c.obj
 .text.DbgConsole_EnterLowpower
                0x0000000000000000       0x30 CMakeFiles/freertos_hello.elf.dir/project/sdk/devices/LPC5536/utilities/debug_console/fsl_debug_console.c.obj
 .text.DbgConsole_ExitLowpower
                0x0000000000000000       0x30 CMakeFiles/freertos_hello.elf.dir/project/sdk/devices/LPC5536/utilities/debug_console/fsl_debug_console.c.obj
 .text.DbgConsole_Deinit
                0x0000000000000000       0x64 CMakeFiles/freertos_hello.elf.dir/project/sdk/devices/LPC5536/utilities/debug_console/fsl_debug_console.c.obj
 .text.DbgConsole_Flush
                0x0000000000000000       0x10 CMakeFiles/freertos_hello.elf.dir/project/sdk/devices/LPC5536/utilities/debug_console/fsl_debug_console.c.obj
 .text.DbgConsole_Putchar
                0x0000000000000000       0x1c CMakeFiles/freertos_hello.elf.dir/project/sdk/devices/LPC5536/utilities/debug_console/fsl_debug_console.c.obj
 .text.DbgConsole_Scanf
                0x0000000000000000       0x48 CMakeFiles/freertos_hello.elf.dir/project/sdk/devices/LPC5536/utilities/debug_console/fsl_debug_console.c.obj
 .text.DbgConsole_BlockingPrintf
                0x0000000000000000       0x2c CMakeFiles/freertos_hello.elf.dir/project/sdk/devices/LPC5536/utilities/debug_console/fsl_debug_console.c.obj
 .text.DbgConsole_BlockingVprintf
                0x0000000000000000       0x8c CMakeFiles/freertos_hello.elf.dir/project/sdk/devices/LPC5536/utilities/debug_console/fsl_debug_console.c.obj
 .text.DbgConsole_Getchar
                0x0000000000000000       0x2c CMakeFiles/freertos_hello.elf.dir/project/sdk/devices/LPC5536/utilities/debug_console/fsl_debug_console.c.obj
 .text          0x0000000000000000       0x30 /opt/arm/arm-gnu-toolchain-12.2.rel1-x86_64-arm-none-eabi/bin/../lib/gcc/arm-none-eabi/12.2.1/thumb/v8-m.main+fp/hard/libgcc.a(_aeabi_uldivmod.o)
 .data          0x0000000000000000        0x0 /opt/arm/arm-gnu-toolchain-12.2.rel1-x86_64-arm-none-eabi/bin/../lib/gcc/arm-none-eabi/12.2.1/thumb/v8-m.main+fp/hard/libgcc.a(_aeabi_uldivmod.o)
 .bss           0x0000000000000000        0x0 /opt/arm/arm-gnu-toolchain-12.2.rel1-x86_64-arm-none-eabi/bin/../lib/gcc/arm-none-eabi/12.2.1/thumb/v8-m.main+fp/hard/libgcc.a(_aeabi_uldivmod.o)
 .debug_line_str
                0x0000000000000000       0xc6 /opt/arm/arm-gnu-toolchain-12.2.rel1-x86_64-arm-none-eabi/bin/../lib/gcc/arm-none-eabi/12.2.1/thumb/v8-m.main+fp/hard/libgcc.a(_aeabi_uldivmod.o)
 .debug_frame   0x0000000000000000       0x2c /opt/arm/arm-gnu-toolchain-12.2.rel1-x86_64-arm-none-eabi/bin/../lib/gcc/arm-none-eabi/12.2.1/thumb/v8-m.main+fp/hard/libgcc.a(_aeabi_uldivmod.o)
 .ARM.attributes
                0x0000000000000000       0x26 /opt/arm/arm-gnu-toolchain-12.2.rel1-x86_64-arm-none-eabi/bin/../lib/gcc/arm-none-eabi/12.2.1/thumb/v8-m.main+fp/hard/libgcc.a(_aeabi_uldivmod.o)
 .text          0x0000000000000000        0x0 /opt/arm/arm-gnu-toolchain-12.2.rel1-x86_64-arm-none-eabi/bin/../lib/gcc/arm-none-eabi/12.2.1/thumb/v8-m.main+fp/hard/libgcc.a(_fixunssfdi.o)
 .data          0x0000000000000000        0x0 /opt/arm/arm-gnu-toolchain-12.2.rel1-x86_64-arm-none-eabi/bin/../lib/gcc/arm-none-eabi/12.2.1/thumb/v8-m.main+fp/hard/libgcc.a(_fixunssfdi.o)
 .bss           0x0000000000000000        0x0 /opt/arm/arm-gnu-toolchain-12.2.rel1-x86_64-arm-none-eabi/bin/../lib/gcc/arm-none-eabi/12.2.1/thumb/v8-m.main+fp/hard/libgcc.a(_fixunssfdi.o)
 .text.__fixunssfdi
                0x0000000000000000       0x40 /opt/arm/arm-gnu-toolchain-12.2.rel1-x86_64-arm-none-eabi/bin/../lib/gcc/arm-none-eabi/12.2.1/thumb/v8-m.main+fp/hard/libgcc.a(_fixunssfdi.o)
 .debug_frame   0x0000000000000000       0x2c /opt/arm/arm-gnu-toolchain-12.2.rel1-x86_64-arm-none-eabi/bin/../lib/gcc/arm-none-eabi/12.2.1/thumb/v8-m.main+fp/hard/libgcc.a(_fixunssfdi.o)
 .ARM.attributes
                0x0000000000000000       0x38 /opt/arm/arm-gnu-toolchain-12.2.rel1-x86_64-arm-none-eabi/bin/../lib/gcc/arm-none-eabi/12.2.1/thumb/v8-m.main+fp/hard/libgcc.a(_fixunssfdi.o)
 .text          0x0000000000000000        0x0 /opt/arm/arm-gnu-toolchain-12.2.rel1-x86_64-arm-none-eabi/bin/../lib/gcc/arm-none-eabi/12.2.1/thumb/v8-m.main+fp/hard/libgcc.a(_udivmoddi4.o)
 .data          0x0000000000000000        0x0 /opt/arm/arm-gnu-toolchain-12.2.rel1-x86_64-arm-none-eabi/bin/../lib/gcc/arm-none-eabi/12.2.1/thumb/v8-m.main+fp/hard/libgcc.a(_udivmoddi4.o)
 .bss           0x0000000000000000        0x0 /opt/arm/arm-gnu-toolchain-12.2.rel1-x86_64-arm-none-eabi/bin/../lib/gcc/arm-none-eabi/12.2.1/thumb/v8-m.main+fp/hard/libgcc.a(_udivmoddi4.o)
 .text.__udivmoddi4
                0x0000000000000000      0x2ec /opt/arm/arm-gnu-toolchain-12.2.rel1-x86_64-arm-none-eabi/bin/../lib/gcc/arm-none-eabi/12.2.1/thumb/v8-m.main+fp/hard/libgcc.a(_udivmoddi4.o)
 .ARM.extab.text.__udivmoddi4
                0x0000000000000000        0x0 /opt/arm/arm-gnu-toolchain-12.2.rel1-x86_64-arm-none-eabi/bin/../lib/gcc/arm-none-eabi/12.2.1/thumb/v8-m.main+fp/hard/libgcc.a(_udivmoddi4.o)
 .ARM.exidx.text.__udivmoddi4
                0x0000000000000000        0x8 /opt/arm/arm-gnu-toolchain-12.2.rel1-x86_64-arm-none-eabi/bin/../lib/gcc/arm-none-eabi/12.2.1/thumb/v8-m.main+fp/hard/libgcc.a(_udivmoddi4.o)
 .debug_frame   0x0000000000000000       0x38 /opt/arm/arm-gnu-toolchain-12.2.rel1-x86_64-arm-none-eabi/bin/../lib/gcc/arm-none-eabi/12.2.1/thumb/v8-m.main+fp/hard/libgcc.a(_udivmoddi4.o)
 .ARM.attributes
                0x0000000000000000       0x38 /opt/arm/arm-gnu-toolchain-12.2.rel1-x86_64-arm-none-eabi/bin/../lib/gcc/arm-none-eabi/12.2.1/thumb/v8-m.main+fp/hard/libgcc.a(_udivmoddi4.o)
 .text          0x0000000000000000      0x254 /opt/arm/arm-gnu-toolchain-12.2.rel1-x86_64-arm-none-eabi/bin/../lib/gcc/arm-none-eabi/12.2.1/thumb/v8-m.main+fp/hard/libgcc.a(_arm_muldf3.o)
 .data          0x0000000000000000        0x0 /opt/arm/arm-gnu-toolchain-12.2.rel1-x86_64-arm-none-eabi/bin/../lib/gcc/arm-none-eabi/12.2.1/thumb/v8-m.main+fp/hard/libgcc.a(_arm_muldf3.o)
 .bss           0x0000000000000000        0x0 /opt/arm/arm-gnu-toolchain-12.2.rel1-x86_64-arm-none-eabi/bin/../lib/gcc/arm-none-eabi/12.2.1/thumb/v8-m.main+fp/hard/libgcc.a(_arm_muldf3.o)
 .debug_line_str
                0x0000000000000000       0xcb /opt/arm/arm-gnu-toolchain-12.2.rel1-x86_64-arm-none-eabi/bin/../lib/gcc/arm-none-eabi/12.2.1/thumb/v8-m.main+fp/hard/libgcc.a(_arm_muldf3.o)
 .debug_frame   0x0000000000000000       0x30 /opt/arm/arm-gnu-toolchain-12.2.rel1-x86_64-arm-none-eabi/bin/../lib/gcc/arm-none-eabi/12.2.1/thumb/v8-m.main+fp/hard/libgcc.a(_arm_muldf3.o)
 .ARM.attributes
                0x0000000000000000       0x26 /opt/arm/arm-gnu-toolchain-12.2.rel1-x86_64-arm-none-eabi/bin/../lib/gcc/arm-none-eabi/12.2.1/thumb/v8-m.main+fp/hard/libgcc.a(_arm_muldf3.o)
 .text          0x0000000000000000        0x4 /opt/arm/arm-gnu-toolchain-12.2.rel1-x86_64-arm-none-eabi/bin/../lib/gcc/arm-none-eabi/12.2.1/thumb/v8-m.main+fp/hard/libgcc.a(_dvmd_tls.o)
 .data          0x0000000000000000        0x0 /opt/arm/arm-gnu-toolchain-12.2.rel1-x86_64-arm-none-eabi/bin/../lib/gcc/arm-none-eabi/12.2.1/thumb/v8-m.main+fp/hard/libgcc.a(_dvmd_tls.o)
 .bss           0x0000000000000000        0x0 /opt/arm/arm-gnu-toolchain-12.2.rel1-x86_64-arm-none-eabi/bin/../lib/gcc/arm-none-eabi/12.2.1/thumb/v8-m.main+fp/hard/libgcc.a(_dvmd_tls.o)
 .debug_line_str
                0x0000000000000000       0xca /opt/arm/arm-gnu-toolchain-12.2.rel1-x86_64-arm-none-eabi/bin/../lib/gcc/arm-none-eabi/12.2.1/thumb/v8-m.main+fp/hard/libgcc.a(_dvmd_tls.o)
 .ARM.attributes
                0x0000000000000000       0x26 /opt/arm/arm-gnu-toolchain-12.2.rel1-x86_64-arm-none-eabi/bin/../lib/gcc/arm-none-eabi/12.2.1/thumb/v8-m.main+fp/hard/libgcc.a(_dvmd_tls.o)
 .text          0x0000000000000000      0x378 /opt/arm/arm-gnu-toolchain-12.2.rel1-x86_64-arm-none-eabi/bin/../lib/gcc/arm-none-eabi/12.2.1/thumb/v8-m.main+fp/hard/libgcc.a(_arm_addsubdf3.o)
 .data          0x0000000000000000        0x0 /opt/arm/arm-gnu-toolchain-12.2.rel1-x86_64-arm-none-eabi/bin/../lib/gcc/arm-none-eabi/12.2.1/thumb/v8-m.main+fp/hard/libgcc.a(_arm_addsubdf3.o)
 .bss           0x0000000000000000        0x0 /opt/arm/arm-gnu-toolchain-12.2.rel1-x86_64-arm-none-eabi/bin/../lib/gcc/arm-none-eabi/12.2.1/thumb/v8-m.main+fp/hard/libgcc.a(_arm_addsubdf3.o)
 .debug_line_str
                0x0000000000000000       0xcb /opt/arm/arm-gnu-toolchain-12.2.rel1-x86_64-arm-none-eabi/bin/../lib/gcc/arm-none-eabi/12.2.1/thumb/v8-m.main+fp/hard/libgcc.a(_arm_addsubdf3.o)
 .debug_frame   0x0000000000000000       0xac /opt/arm/arm-gnu-toolchain-12.2.rel1-x86_64-arm-none-eabi/bin/../lib/gcc/arm-none-eabi/12.2.1/thumb/v8-m.main+fp/hard/libgcc.a(_arm_addsubdf3.o)
 .ARM.attributes
                0x0000000000000000       0x26 /opt/arm/arm-gnu-toolchain-12.2.rel1-x86_64-arm-none-eabi/bin/../lib/gcc/arm-none-eabi/12.2.1/thumb/v8-m.main+fp/hard/libgcc.a(_arm_addsubdf3.o)
 .text          0x0000000000000000       0x40 /opt/arm/arm-gnu-toolchain-12.2.rel1-x86_64-arm-none-eabi/bin/../lib/gcc/arm-none-eabi/12.2.1/thumb/v8-m.main+fp/hard/libgcc.a(_arm_fixunsdfsi.o)
 .data          0x0000000000000000        0x0 /opt/arm/arm-gnu-toolchain-12.2.rel1-x86_64-arm-none-eabi/bin/../lib/gcc/arm-none-eabi/12.2.1/thumb/v8-m.main+fp/hard/libgcc.a(_arm_fixunsdfsi.o)
 .bss           0x0000000000000000        0x0 /opt/arm/arm-gnu-toolchain-12.2.rel1-x86_64-arm-none-eabi/bin/../lib/gcc/arm-none-eabi/12.2.1/thumb/v8-m.main+fp/hard/libgcc.a(_arm_fixunsdfsi.o)
 .debug_line_str
                0x0000000000000000       0xcb /opt/arm/arm-gnu-toolchain-12.2.rel1-x86_64-arm-none-eabi/bin/../lib/gcc/arm-none-eabi/12.2.1/thumb/v8-m.main+fp/hard/libgcc.a(_arm_fixunsdfsi.o)
 .debug_frame   0x0000000000000000       0x24 /opt/arm/arm-gnu-toolchain-12.2.rel1-x86_64-arm-none-eabi/bin/../lib/gcc/arm-none-eabi/12.2.1/thumb/v8-m.main+fp/hard/libgcc.a(_arm_fixunsdfsi.o)
 .ARM.attributes
                0x0000000000000000       0x26 /opt/arm/arm-gnu-toolchain-12.2.rel1-x86_64-arm-none-eabi/bin/../lib/gcc/arm-none-eabi/12.2.1/thumb/v8-m.main+fp/hard/libgcc.a(_arm_fixunsdfsi.o)
 .text          0x0000000000000000        0x0 /opt/arm/arm-gnu-toolchain-12.2.rel1-x86_64-arm-none-eabi/bin/../lib/gcc/arm-none-eabi/12.2.1/../../../../arm-none-eabi/lib/thumb/v8-m.main+fp/hard/libc_nano.a(libc_a-exit.o)
 .data          0x0000000000000000        0x0 /opt/arm/arm-gnu-toolchain-12.2.rel1-x86_64-arm-none-eabi/bin/../lib/gcc/arm-none-eabi/12.2.1/../../../../arm-none-eabi/lib/thumb/v8-m.main+fp/hard/libc_nano.a(libc_a-exit.o)
 .bss           0x0000000000000000        0x0 /opt/arm/arm-gnu-toolchain-12.2.rel1-x86_64-arm-none-eabi/bin/../lib/gcc/arm-none-eabi/12.2.1/../../../../arm-none-eabi/lib/thumb/v8-m.main+fp/hard/libc_nano.a(libc_a-exit.o)
 .text          0x0000000000000000        0x0 /opt/arm/arm-gnu-toolchain-12.2.rel1-x86_64-arm-none-eabi/bin/../lib/gcc/arm-none-eabi/12.2.1/../../../../arm-none-eabi/lib/thumb/v8-m.main+fp/hard/libc_nano.a(libc_a-strtoul.o)
 .data          0x0000000000000000        0x0 /opt/arm/arm-gnu-toolchain-12.2.rel1-x86_64-arm-none-eabi/bin/../lib/gcc/arm-none-eabi/12.2.1/../../../../arm-none-eabi/lib/thumb/v8-m.main+fp/hard/libc_nano.a(libc_a-strtoul.o)
 .bss           0x0000000000000000        0x0 /opt/arm/arm-gnu-toolchain-12.2.rel1-x86_64-arm-none-eabi/bin/../lib/gcc/arm-none-eabi/12.2.1/../../../../arm-none-eabi/lib/thumb/v8-m.main+fp/hard/libc_nano.a(libc_a-strtoul.o)
 .text._strtoul_l.constprop.0
                0x0000000000000000       0xe4 /opt/arm/arm-gnu-toolchain-12.2.rel1-x86_64-arm-none-eabi/bin/../lib/gcc/arm-none-eabi/12.2.1/../../../../arm-none-eabi/lib/thumb/v8-m.main+fp/hard/libc_nano.a(libc_a-strtoul.o)
 .text._strtoul_r
                0x0000000000000000        0x4 /opt/arm/arm-gnu-toolchain-12.2.rel1-x86_64-arm-none-eabi/bin/../lib/gcc/arm-none-eabi/12.2.1/../../../../arm-none-eabi/lib/thumb/v8-m.main+fp/hard/libc_nano.a(libc_a-strtoul.o)
 .text.strtoul_l
                0x0000000000000000       0x14 /opt/arm/arm-gnu-toolchain-12.2.rel1-x86_64-arm-none-eabi/bin/../lib/gcc/arm-none-eabi/12.2.1/../../../../arm-none-eabi/lib/thumb/v8-m.main+fp/hard/libc_nano.a(libc_a-strtoul.o)
 .text.strtoul  0x0000000000000000       0x14 /opt/arm/arm-gnu-toolchain-12.2.rel1-x86_64-arm-none-eabi/bin/../lib/gcc/arm-none-eabi/12.2.1/../../../../arm-none-eabi/lib/thumb/v8-m.main+fp/hard/libc_nano.a(libc_a-strtoul.o)
 .debug_frame   0x0000000000000000       0x64 /opt/arm/arm-gnu-toolchain-12.2.rel1-x86_64-arm-none-eabi/bin/../lib/gcc/arm-none-eabi/12.2.1/../../../../arm-none-eabi/lib/thumb/v8-m.main+fp/hard/libc_nano.a(libc_a-strtoul.o)
 .ARM.attributes
                0x0000000000000000       0x38 /opt/arm/arm-gnu-toolchain-12.2.rel1-x86_64-arm-none-eabi/bin/../lib/gcc/arm-none-eabi/12.2.1/../../../../arm-none-eabi/lib/thumb/v8-m.main+fp/hard/libc_nano.a(libc_a-strtoul.o)
 .text          0x0000000000000000        0x0 /opt/arm/arm-gnu-toolchain-12.2.rel1-x86_64-arm-none-eabi/bin/../lib/gcc/arm-none-eabi/12.2.1/../../../../arm-none-eabi/lib/thumb/v8-m.main+fp/hard/libc_nano.a(libc_a-init.o)
 .data          0x0000000000000000        0x0 /opt/arm/arm-gnu-toolchain-12.2.rel1-x86_64-arm-none-eabi/bin/../lib/gcc/arm-none-eabi/12.2.1/../../../../arm-none-eabi/lib/thumb/v8-m.main+fp/hard/libc_nano.a(libc_a-init.o)
 .bss           0x0000000000000000        0x0 /opt/arm/arm-gnu-toolchain-12.2.rel1-x86_64-arm-none-eabi/bin/../lib/gcc/arm-none-eabi/12.2.1/../../../../arm-none-eabi/lib/thumb/v8-m.main+fp/hard/libc_nano.a(libc_a-init.o)
 .text          0x0000000000000000        0x0 /opt/arm/arm-gnu-toolchain-12.2.rel1-x86_64-arm-none-eabi/bin/../lib/gcc/arm-none-eabi/12.2.1/../../../../arm-none-eabi/lib/thumb/v8-m.main+fp/hard/libc_nano.a(libc_a-impure.o)
 .data          0x0000000000000000        0x0 /opt/arm/arm-gnu-toolchain-12.2.rel1-x86_64-arm-none-eabi/bin/../lib/gcc/arm-none-eabi/12.2.1/../../../../arm-none-eabi/lib/thumb/v8-m.main+fp/hard/libc_nano.a(libc_a-impure.o)
 .bss           0x0000000000000000        0x0 /opt/arm/arm-gnu-toolchain-12.2.rel1-x86_64-arm-none-eabi/bin/../lib/gcc/arm-none-eabi/12.2.1/../../../../arm-none-eabi/lib/thumb/v8-m.main+fp/hard/libc_nano.a(libc_a-impure.o)
 .data._impure_ptr
                0x0000000000000000        0x4 /opt/arm/arm-gnu-toolchain-12.2.rel1-x86_64-arm-none-eabi/bin/../lib/gcc/arm-none-eabi/12.2.1/../../../../arm-none-eabi/lib/thumb/v8-m.main+fp/hard/libc_nano.a(libc_a-impure.o)
 .data._impure_data
                0x0000000000000000       0x4c /opt/arm/arm-gnu-toolchain-12.2.rel1-x86_64-arm-none-eabi/bin/../lib/gcc/arm-none-eabi/12.2.1/../../../../arm-none-eabi/lib/thumb/v8-m.main+fp/hard/libc_nano.a(libc_a-impure.o)
 .ARM.attributes
                0x0000000000000000       0x38 /opt/arm/arm-gnu-toolchain-12.2.rel1-x86_64-arm-none-eabi/bin/../lib/gcc/arm-none-eabi/12.2.1/../../../../arm-none-eabi/lib/thumb/v8-m.main+fp/hard/libc_nano.a(libc_a-impure.o)
 .text          0x0000000000000000        0x0 /opt/arm/arm-gnu-toolchain-12.2.rel1-x86_64-arm-none-eabi/bin/../lib/gcc/arm-none-eabi/12.2.1/../../../../arm-none-eabi/lib/thumb/v8-m.main+fp/hard/libc_nano.a(libc_a-malloc.o)
 .data          0x0000000000000000        0x0 /opt/arm/arm-gnu-toolchain-12.2.rel1-x86_64-arm-none-eabi/bin/../lib/gcc/arm-none-eabi/12.2.1/../../../../arm-none-eabi/lib/thumb/v8-m.main+fp/hard/libc_nano.a(libc_a-malloc.o)
 .bss           0x0000000000000000        0x0 /opt/arm/arm-gnu-toolchain-12.2.rel1-x86_64-arm-none-eabi/bin/../lib/gcc/arm-none-eabi/12.2.1/../../../../arm-none-eabi/lib/thumb/v8-m.main+fp/hard/libc_nano.a(libc_a-malloc.o)
 .text.malloc   0x0000000000000000       0x10 /opt/arm/arm-gnu-toolchain-12.2.rel1-x86_64-arm-none-eabi/bin/../lib/gcc/arm-none-eabi/12.2.1/../../../../arm-none-eabi/lib/thumb/v8-m.main+fp/hard/libc_nano.a(libc_a-malloc.o)
 .text.free     0x0000000000000000       0x10 /opt/arm/arm-gnu-toolchain-12.2.rel1-x86_64-arm-none-eabi/bin/../lib/gcc/arm-none-eabi/12.2.1/../../../../arm-none-eabi/lib/thumb/v8-m.main+fp/hard/libc_nano.a(libc_a-malloc.o)
 .debug_frame   0x0000000000000000       0x30 /opt/arm/arm-gnu-toolchain-12.2.rel1-x86_64-arm-none-eabi/bin/../lib/gcc/arm-none-eabi/12.2.1/../../../../arm-none-eabi/lib/thumb/v8-m.main+fp/hard/libc_nano.a(libc_a-malloc.o)
 .ARM.attributes
                0x0000000000000000       0x38 /opt/arm/arm-gnu-toolchain-12.2.rel1-x86_64-arm-none-eabi/bin/../lib/gcc/arm-none-eabi/12.2.1/../../../../arm-none-eabi/lib/thumb/v8-m.main+fp/hard/libc_nano.a(libc_a-malloc.o)
 .text          0x0000000000000000        0x0 /opt/arm/arm-gnu-toolchain-12.2.rel1-x86_64-arm-none-eabi/bin/../lib/gcc/arm-none-eabi/12.2.1/../../../../arm-none-eabi/lib/thumb/v8-m.main+fp/hard/libc_nano.a(libc_a-mallocr.o)
 .data          0x0000000000000000        0x0 /opt/arm/arm-gnu-toolchain-12.2.rel1-x86_64-arm-none-eabi/bin/../lib/gcc/arm-none-eabi/12.2.1/../../../../arm-none-eabi/lib/thumb/v8-m.main+fp/hard/libc_nano.a(libc_a-mallocr.o)
 .bss           0x0000000000000000        0x0 /opt/arm/arm-gnu-toolchain-12.2.rel1-x86_64-arm-none-eabi/bin/../lib/gcc/arm-none-eabi/12.2.1/../../../../arm-none-eabi/lib/thumb/v8-m.main+fp/hard/libc_nano.a(libc_a-mallocr.o)
 .text.sbrk_aligned
                0x0000000000000000       0x44 /opt/arm/arm-gnu-toolchain-12.2.rel1-x86_64-arm-none-eabi/bin/../lib/gcc/arm-none-eabi/12.2.1/../../../../arm-none-eabi/lib/thumb/v8-m.main+fp/hard/libc_nano.a(libc_a-mallocr.o)
 .text._malloc_r
                0x0000000000000000       0xf0 /opt/arm/arm-gnu-toolchain-12.2.rel1-x86_64-arm-none-eabi/bin/../lib/gcc/arm-none-eabi/12.2.1/../../../../arm-none-eabi/lib/thumb/v8-m.main+fp/hard/libc_nano.a(libc_a-mallocr.o)
 .bss.__malloc_sbrk_start
                0x0000000000000000        0x4 /opt/arm/arm-gnu-toolchain-12.2.rel1-x86_64-arm-none-eabi/bin/../lib/gcc/arm-none-eabi/12.2.1/../../../../arm-none-eabi/lib/thumb/v8-m.main+fp/hard/libc_nano.a(libc_a-mallocr.o)
 .bss.__malloc_free_list
                0x0000000000000000        0x4 /opt/arm/arm-gnu-toolchain-12.2.rel1-x86_64-arm-none-eabi/bin/../lib/gcc/arm-none-eabi/12.2.1/../../../../arm-none-eabi/lib/thumb/v8-m.main+fp/hard/libc_nano.a(libc_a-mallocr.o)
 .debug_frame   0x0000000000000000       0x4c /opt/arm/arm-gnu-toolchain-12.2.rel1-x86_64-arm-none-eabi/bin/../lib/gcc/arm-none-eabi/12.2.1/../../../../arm-none-eabi/lib/thumb/v8-m.main+fp/hard/libc_nano.a(libc_a-mallocr.o)
 .ARM.attributes
                0x0000000000000000       0x38 /opt/arm/arm-gnu-toolchain-12.2.rel1-x86_64-arm-none-eabi/bin/../lib/gcc/arm-none-eabi/12.2.1/../../../../arm-none-eabi/lib/thumb/v8-m.main+fp/hard/libc_nano.a(libc_a-mallocr.o)
 .text          0x0000000000000000        0x0 /opt/arm/arm-gnu-toolchain-12.2.rel1-x86_64-arm-none-eabi/bin/../lib/gcc/arm-none-eabi/12.2.1/../../../../arm-none-eabi/lib/thumb/v8-m.main+fp/hard/libc_nano.a(libc_a-findfp.o)
 .data          0x0000000000000000        0x0 /opt/arm/arm-gnu-toolchain-12.2.rel1-x86_64-arm-none-eabi/bin/../lib/gcc/arm-none-eabi/12.2.1/../../../../arm-none-eabi/lib/thumb/v8-m.main+fp/hard/libc_nano.a(libc_a-findfp.o)
 .bss           0x0000000000000000        0x0 /opt/arm/arm-gnu-toolchain-12.2.rel1-x86_64-arm-none-eabi/bin/../lib/gcc/arm-none-eabi/12.2.1/../../../../arm-none-eabi/lib/thumb/v8-m.main+fp/hard/libc_nano.a(libc_a-findfp.o)
 .text.std      0x0000000000000000       0x6c /opt/arm/arm-gnu-toolchain-12.2.rel1-x86_64-arm-none-eabi/bin/../lib/gcc/arm-none-eabi/12.2.1/../../../../arm-none-eabi/lib/thumb/v8-m.main+fp/hard/libc_nano.a(libc_a-findfp.o)
 .text.stdio_exit_handler
                0x0000000000000000       0x18 /opt/arm/arm-gnu-toolchain-12.2.rel1-x86_64-arm-none-eabi/bin/../lib/gcc/arm-none-eabi/12.2.1/../../../../arm-none-eabi/lib/thumb/v8-m.main+fp/hard/libc_nano.a(libc_a-findfp.o)
 .text.cleanup_stdio
                0x0000000000000000       0x40 /opt/arm/arm-gnu-toolchain-12.2.rel1-x86_64-arm-none-eabi/bin/../lib/gcc/arm-none-eabi/12.2.1/../../../../arm-none-eabi/lib/thumb/v8-m.main+fp/hard/libc_nano.a(libc_a-findfp.o)
 .text.__fp_lock
                0x0000000000000000       0x18 /opt/arm/arm-gnu-toolchain-12.2.rel1-x86_64-arm-none-eabi/bin/../lib/gcc/arm-none-eabi/12.2.1/../../../../arm-none-eabi/lib/thumb/v8-m.main+fp/hard/libc_nano.a(libc_a-findfp.o)
 .text.__fp_unlock
                0x0000000000000000       0x18 /opt/arm/arm-gnu-toolchain-12.2.rel1-x86_64-arm-none-eabi/bin/../lib/gcc/arm-none-eabi/12.2.1/../../../../arm-none-eabi/lib/thumb/v8-m.main+fp/hard/libc_nano.a(libc_a-findfp.o)
 .text.global_stdio_init.part.0
                0x0000000000000000       0x3c /opt/arm/arm-gnu-toolchain-12.2.rel1-x86_64-arm-none-eabi/bin/../lib/gcc/arm-none-eabi/12.2.1/../../../../arm-none-eabi/lib/thumb/v8-m.main+fp/hard/libc_nano.a(libc_a-findfp.o)
 .text.__sfp_lock_acquire
                0x0000000000000000        0xc /opt/arm/arm-gnu-toolchain-12.2.rel1-x86_64-arm-none-eabi/bin/../lib/gcc/arm-none-eabi/12.2.1/../../../../arm-none-eabi/lib/thumb/v8-m.main+fp/hard/libc_nano.a(libc_a-findfp.o)
 .text.__sfp_lock_release
                0x0000000000000000        0xc /opt/arm/arm-gnu-toolchain-12.2.rel1-x86_64-arm-none-eabi/bin/../lib/gcc/arm-none-eabi/12.2.1/../../../../arm-none-eabi/lib/thumb/v8-m.main+fp/hard/libc_nano.a(libc_a-findfp.o)
 .text.__sfp    0x0000000000000000       0xa4 /opt/arm/arm-gnu-toolchain-12.2.rel1-x86_64-arm-none-eabi/bin/../lib/gcc/arm-none-eabi/12.2.1/../../../../arm-none-eabi/lib/thumb/v8-m.main+fp/hard/libc_nano.a(libc_a-findfp.o)
 .text.__sinit  0x0000000000000000       0x30 /opt/arm/arm-gnu-toolchain-12.2.rel1-x86_64-arm-none-eabi/bin/../lib/gcc/arm-none-eabi/12.2.1/../../../../arm-none-eabi/lib/thumb/v8-m.main+fp/hard/libc_nano.a(libc_a-findfp.o)
 .text.__fp_lock_all
                0x0000000000000000       0x1c /opt/arm/arm-gnu-toolchain-12.2.rel1-x86_64-arm-none-eabi/bin/../lib/gcc/arm-none-eabi/12.2.1/../../../../arm-none-eabi/lib/thumb/v8-m.main+fp/hard/libc_nano.a(libc_a-findfp.o)
 .text.__fp_unlock_all
                0x0000000000000000       0x1c /opt/arm/arm-gnu-toolchain-12.2.rel1-x86_64-arm-none-eabi/bin/../lib/gcc/arm-none-eabi/12.2.1/../../../../arm-none-eabi/lib/thumb/v8-m.main+fp/hard/libc_nano.a(libc_a-findfp.o)
 .data.__sglue  0x0000000000000000        0xc /opt/arm/arm-gnu-toolchain-12.2.rel1-x86_64-arm-none-eabi/bin/../lib/gcc/arm-none-eabi/12.2.1/../../../../arm-none-eabi/lib/thumb/v8-m.main+fp/hard/libc_nano.a(libc_a-findfp.o)
 .bss.__sf      0x0000000000000000      0x138 /opt/arm/arm-gnu-toolchain-12.2.rel1-x86_64-arm-none-eabi/bin/../lib/gcc/arm-none-eabi/12.2.1/../../../../arm-none-eabi/lib/thumb/v8-m.main+fp/hard/libc_nano.a(libc_a-findfp.o)
 .data          0x0000000000000000        0x0 /opt/arm/arm-gnu-toolchain-12.2.rel1-x86_64-arm-none-eabi/bin/../lib/gcc/arm-none-eabi/12.2.1/../../../../arm-none-eabi/lib/thumb/v8-m.main+fp/hard/libc_nano.a(libc_a-strlen.o)
 .bss           0x0000000000000000        0x0 /opt/arm/arm-gnu-toolchain-12.2.rel1-x86_64-arm-none-eabi/bin/../lib/gcc/arm-none-eabi/12.2.1/../../../../arm-none-eabi/lib/thumb/v8-m.main+fp/hard/libc_nano.a(libc_a-strlen.o)
 .text          0x0000000000000000        0x0 /opt/arm/arm-gnu-toolchain-12.2.rel1-x86_64-arm-none-eabi/bin/../lib/gcc/arm-none-eabi/12.2.1/../../../../arm-none-eabi/lib/thumb/v8-m.main+fp/hard/libc_nano.a(libc_a-stdio.o)
 .data          0x0000000000000000        0x0 /opt/arm/arm-gnu-toolchain-12.2.rel1-x86_64-arm-none-eabi/bin/../lib/gcc/arm-none-eabi/12.2.1/../../../../arm-none-eabi/lib/thumb/v8-m.main+fp/hard/libc_nano.a(libc_a-stdio.o)
 .bss           0x0000000000000000        0x0 /opt/arm/arm-gnu-toolchain-12.2.rel1-x86_64-arm-none-eabi/bin/../lib/gcc/arm-none-eabi/12.2.1/../../../../arm-none-eabi/lib/thumb/v8-m.main+fp/hard/libc_nano.a(libc_a-stdio.o)
 .text.__sread  0x0000000000000000       0x22 /opt/arm/arm-gnu-toolchain-12.2.rel1-x86_64-arm-none-eabi/bin/../lib/gcc/arm-none-eabi/12.2.1/../../../../arm-none-eabi/lib/thumb/v8-m.main+fp/hard/libc_nano.a(libc_a-stdio.o)
 .text.__seofread
                0x0000000000000000        0x4 /opt/arm/arm-gnu-toolchain-12.2.rel1-x86_64-arm-none-eabi/bin/../lib/gcc/arm-none-eabi/12.2.1/../../../../arm-none-eabi/lib/thumb/v8-m.main+fp/hard/libc_nano.a(libc_a-stdio.o)
 .text.__swrite
                0x0000000000000000       0x38 /opt/arm/arm-gnu-toolchain-12.2.rel1-x86_64-arm-none-eabi/bin/../lib/gcc/arm-none-eabi/12.2.1/../../../../arm-none-eabi/lib/thumb/v8-m.main+fp/hard/libc_nano.a(libc_a-stdio.o)
 .text.__sseek  0x0000000000000000       0x24 /opt/arm/arm-gnu-toolchain-12.2.rel1-x86_64-arm-none-eabi/bin/../lib/gcc/arm-none-eabi/12.2.1/../../../../arm-none-eabi/lib/thumb/v8-m.main+fp/hard/libc_nano.a(libc_a-stdio.o)
 .text.__sclose
                0x0000000000000000        0x8 /opt/arm/arm-gnu-toolchain-12.2.rel1-x86_64-arm-none-eabi/bin/../lib/gcc/arm-none-eabi/12.2.1/../../../../arm-none-eabi/lib/thumb/v8-m.main+fp/hard/libc_nano.a(libc_a-stdio.o)
 .debug_frame   0x0000000000000000       0x88 /opt/arm/arm-gnu-toolchain-12.2.rel1-x86_64-arm-none-eabi/bin/../lib/gcc/arm-none-eabi/12.2.1/../../../../arm-none-eabi/lib/thumb/v8-m.main+fp/hard/libc_nano.a(libc_a-stdio.o)
 .ARM.attributes
                0x0000000000000000       0x38 /opt/arm/arm-gnu-toolchain-12.2.rel1-x86_64-arm-none-eabi/bin/../lib/gcc/arm-none-eabi/12.2.1/../../../../arm-none-eabi/lib/thumb/v8-m.main+fp/hard/libc_nano.a(libc_a-stdio.o)
 .text          0x0000000000000000        0x0 /opt/arm/arm-gnu-toolchain-12.2.rel1-x86_64-arm-none-eabi/bin/../lib/gcc/arm-none-eabi/12.2.1/../../../../arm-none-eabi/lib/thumb/v8-m.main+fp/hard/libc_nano.a(libc_a-mlock.o)
 .data          0x0000000000000000        0x0 /opt/arm/arm-gnu-toolchain-12.2.rel1-x86_64-arm-none-eabi/bin/../lib/gcc/arm-none-eabi/12.2.1/../../../../arm-none-eabi/lib/thumb/v8-m.main+fp/hard/libc_nano.a(libc_a-mlock.o)
 .bss           0x0000000000000000        0x0 /opt/arm/arm-gnu-toolchain-12.2.rel1-x86_64-arm-none-eabi/bin/../lib/gcc/arm-none-eabi/12.2.1/../../../../arm-none-eabi/lib/thumb/v8-m.main+fp/hard/libc_nano.a(libc_a-mlock.o)
 .text.__malloc_lock
                0x0000000000000000        0xc /opt/arm/arm-gnu-toolchain-12.2.rel1-x86_64-arm-none-eabi/bin/../lib/gcc/arm-none-eabi/12.2.1/../../../../arm-none-eabi/lib/thumb/v8-m.main+fp/hard/libc_nano.a(libc_a-mlock.o)
 .text.__malloc_unlock
                0x0000000000000000        0xc /opt/arm/arm-gnu-toolchain-12.2.rel1-x86_64-arm-none-eabi/bin/../lib/gcc/arm-none-eabi/12.2.1/../../../../arm-none-eabi/lib/thumb/v8-m.main+fp/hard/libc_nano.a(libc_a-mlock.o)
 .debug_frame   0x0000000000000000       0x30 /opt/arm/arm-gnu-toolchain-12.2.rel1-x86_64-arm-none-eabi/bin/../lib/gcc/arm-none-eabi/12.2.1/../../../../arm-none-eabi/lib/thumb/v8-m.main+fp/hard/libc_nano.a(libc_a-mlock.o)
 .ARM.attributes
                0x0000000000000000       0x38 /opt/arm/arm-gnu-toolchain-12.2.rel1-x86_64-arm-none-eabi/bin/../lib/gcc/arm-none-eabi/12.2.1/../../../../arm-none-eabi/lib/thumb/v8-m.main+fp/hard/libc_nano.a(libc_a-mlock.o)
 .text          0x0000000000000000        0x0 /opt/arm/arm-gnu-toolchain-12.2.rel1-x86_64-arm-none-eabi/bin/../lib/gcc/arm-none-eabi/12.2.1/../../../../arm-none-eabi/lib/thumb/v8-m.main+fp/hard/libc_nano.a(libc_a-ctype_.o)
 .data          0x0000000000000000        0x0 /opt/arm/arm-gnu-toolchain-12.2.rel1-x86_64-arm-none-eabi/bin/../lib/gcc/arm-none-eabi/12.2.1/../../../../arm-none-eabi/lib/thumb/v8-m.main+fp/hard/libc_nano.a(libc_a-ctype_.o)
 .bss           0x0000000000000000        0x0 /opt/arm/arm-gnu-toolchain-12.2.rel1-x86_64-arm-none-eabi/bin/../lib/gcc/arm-none-eabi/12.2.1/../../../../arm-none-eabi/lib/thumb/v8-m.main+fp/hard/libc_nano.a(libc_a-ctype_.o)
 .rodata._ctype_
                0x0000000000000000      0x101 /opt/arm/arm-gnu-toolchain-12.2.rel1-x86_64-arm-none-eabi/bin/../lib/gcc/arm-none-eabi/12.2.1/../../../../arm-none-eabi/lib/thumb/v8-m.main+fp/hard/libc_nano.a(libc_a-ctype_.o)
 .ARM.attributes
                0x0000000000000000       0x38 /opt/arm/arm-gnu-toolchain-12.2.rel1-x86_64-arm-none-eabi/bin/../lib/gcc/arm-none-eabi/12.2.1/../../../../arm-none-eabi/lib/thumb/v8-m.main+fp/hard/libc_nano.a(libc_a-ctype_.o)
 .text          0x0000000000000000        0x0 /opt/arm/arm-gnu-toolchain-12.2.rel1-x86_64-arm-none-eabi/bin/../lib/gcc/arm-none-eabi/12.2.1/../../../../arm-none-eabi/lib/thumb/v8-m.main+fp/hard/libc_nano.a(libc_a-sbrkr.o)
 .data          0x0000000000000000        0x0 /opt/arm/arm-gnu-toolchain-12.2.rel1-x86_64-arm-none-eabi/bin/../lib/gcc/arm-none-eabi/12.2.1/../../../../arm-none-eabi/lib/thumb/v8-m.main+fp/hard/libc_nano.a(libc_a-sbrkr.o)
 .bss           0x0000000000000000        0x0 /opt/arm/arm-gnu-toolchain-12.2.rel1-x86_64-arm-none-eabi/bin/../lib/gcc/arm-none-eabi/12.2.1/../../../../arm-none-eabi/lib/thumb/v8-m.main+fp/hard/libc_nano.a(libc_a-sbrkr.o)
 .text._sbrk_r  0x0000000000000000       0x20 /opt/arm/arm-gnu-toolchain-12.2.rel1-x86_64-arm-none-eabi/bin/../lib/gcc/arm-none-eabi/12.2.1/../../../../arm-none-eabi/lib/thumb/v8-m.main+fp/hard/libc_nano.a(libc_a-sbrkr.o)
 .debug_frame   0x0000000000000000       0x2c /opt/arm/arm-gnu-toolchain-12.2.rel1-x86_64-arm-none-eabi/bin/../lib/gcc/arm-none-eabi/12.2.1/../../../../arm-none-eabi/lib/thumb/v8-m.main+fp/hard/libc_nano.a(libc_a-sbrkr.o)
 .ARM.attributes
                0x0000000000000000       0x38 /opt/arm/arm-gnu-toolchain-12.2.rel1-x86_64-arm-none-eabi/bin/../lib/gcc/arm-none-eabi/12.2.1/../../../../arm-none-eabi/lib/thumb/v8-m.main+fp/hard/libc_nano.a(libc_a-sbrkr.o)
 .text          0x0000000000000000        0x0 /opt/arm/arm-gnu-toolchain-12.2.rel1-x86_64-arm-none-eabi/bin/../lib/gcc/arm-none-eabi/12.2.1/../../../../arm-none-eabi/lib/thumb/v8-m.main+fp/hard/libc_nano.a(libc_a-writer.o)
 .data          0x0000000000000000        0x0 /opt/arm/arm-gnu-toolchain-12.2.rel1-x86_64-arm-none-eabi/bin/../lib/gcc/arm-none-eabi/12.2.1/../../../../arm-none-eabi/lib/thumb/v8-m.main+fp/hard/libc_nano.a(libc_a-writer.o)
 .bss           0x0000000000000000        0x0 /opt/arm/arm-gnu-toolchain-12.2.rel1-x86_64-arm-none-eabi/bin/../lib/gcc/arm-none-eabi/12.2.1/../../../../arm-none-eabi/lib/thumb/v8-m.main+fp/hard/libc_nano.a(libc_a-writer.o)
 .text._write_r
                0x0000000000000000       0x24 /opt/arm/arm-gnu-toolchain-12.2.rel1-x86_64-arm-none-eabi/bin/../lib/gcc/arm-none-eabi/12.2.1/../../../../arm-none-eabi/lib/thumb/v8-m.main+fp/hard/libc_nano.a(libc_a-writer.o)
 .debug_frame   0x0000000000000000       0x2c /opt/arm/arm-gnu-toolchain-12.2.rel1-x86_64-arm-none-eabi/bin/../lib/gcc/arm-none-eabi/12.2.1/../../../../arm-none-eabi/lib/thumb/v8-m.main+fp/hard/libc_nano.a(libc_a-writer.o)
 .ARM.attributes
                0x0000000000000000       0x38 /opt/arm/arm-gnu-toolchain-12.2.rel1-x86_64-arm-none-eabi/bin/../lib/gcc/arm-none-eabi/12.2.1/../../../../arm-none-eabi/lib/thumb/v8-m.main+fp/hard/libc_nano.a(libc_a-writer.o)
 .text          0x0000000000000000        0x0 /opt/arm/arm-gnu-toolchain-12.2.rel1-x86_64-arm-none-eabi/bin/../lib/gcc/arm-none-eabi/12.2.1/../../../../arm-none-eabi/lib/thumb/v8-m.main+fp/hard/libc_nano.a(libc_a-errno.o)
 .data          0x0000000000000000        0x0 /opt/arm/arm-gnu-toolchain-12.2.rel1-x86_64-arm-none-eabi/bin/../lib/gcc/arm-none-eabi/12.2.1/../../../../arm-none-eabi/lib/thumb/v8-m.main+fp/hard/libc_nano.a(libc_a-errno.o)
 .bss           0x0000000000000000        0x0 /opt/arm/arm-gnu-toolchain-12.2.rel1-x86_64-arm-none-eabi/bin/../lib/gcc/arm-none-eabi/12.2.1/../../../../arm-none-eabi/lib/thumb/v8-m.main+fp/hard/libc_nano.a(libc_a-errno.o)
 .text.__errno  0x0000000000000000        0xc /opt/arm/arm-gnu-toolchain-12.2.rel1-x86_64-arm-none-eabi/bin/../lib/gcc/arm-none-eabi/12.2.1/../../../../arm-none-eabi/lib/thumb/v8-m.main+fp/hard/libc_nano.a(libc_a-errno.o)
 .debug_frame   0x0000000000000000       0x20 /opt/arm/arm-gnu-toolchain-12.2.rel1-x86_64-arm-none-eabi/bin/../lib/gcc/arm-none-eabi/12.2.1/../../../../arm-none-eabi/lib/thumb/v8-m.main+fp/hard/libc_nano.a(libc_a-errno.o)
 .ARM.attributes
                0x0000000000000000       0x38 /opt/arm/arm-gnu-toolchain-12.2.rel1-x86_64-arm-none-eabi/bin/../lib/gcc/arm-none-eabi/12.2.1/../../../../arm-none-eabi/lib/thumb/v8-m.main+fp/hard/libc_nano.a(libc_a-errno.o)
 .text          0x0000000000000000        0x0 /opt/arm/arm-gnu-toolchain-12.2.rel1-x86_64-arm-none-eabi/bin/../lib/gcc/arm-none-eabi/12.2.1/../../../../arm-none-eabi/lib/thumb/v8-m.main+fp/hard/libc_nano.a(libc_a-fwalk.o)
 .data          0x0000000000000000        0x0 /opt/arm/arm-gnu-toolchain-12.2.rel1-x86_64-arm-none-eabi/bin/../lib/gcc/arm-none-eabi/12.2.1/../../../../arm-none-eabi/lib/thumb/v8-m.main+fp/hard/libc_nano.a(libc_a-fwalk.o)
 .bss           0x0000000000000000        0x0 /opt/arm/arm-gnu-toolchain-12.2.rel1-x86_64-arm-none-eabi/bin/../lib/gcc/arm-none-eabi/12.2.1/../../../../arm-none-eabi/lib/thumb/v8-m.main+fp/hard/libc_nano.a(libc_a-fwalk.o)
 .text._fwalk_sglue
                0x0000000000000000       0x3c /opt/arm/arm-gnu-toolchain-12.2.rel1-x86_64-arm-none-eabi/bin/../lib/gcc/arm-none-eabi/12.2.1/../../../../arm-none-eabi/lib/thumb/v8-m.main+fp/hard/libc_nano.a(libc_a-fwalk.o)
 .debug_frame   0x0000000000000000       0x34 /opt/arm/arm-gnu-toolchain-12.2.rel1-x86_64-arm-none-eabi/bin/../lib/gcc/arm-none-eabi/12.2.1/../../../../arm-none-eabi/lib/thumb/v8-m.main+fp/hard/libc_nano.a(libc_a-fwalk.o)
 .ARM.attributes
                0x0000000000000000       0x38 /opt/arm/arm-gnu-toolchain-12.2.rel1-x86_64-arm-none-eabi/bin/../lib/gcc/arm-none-eabi/12.2.1/../../../../arm-none-eabi/lib/thumb/v8-m.main+fp/hard/libc_nano.a(libc_a-fwalk.o)
 .text          0x0000000000000000        0x0 /opt/arm/arm-gnu-toolchain-12.2.rel1-x86_64-arm-none-eabi/bin/../lib/gcc/arm-none-eabi/12.2.1/../../../../arm-none-eabi/lib/thumb/v8-m.main+fp/hard/libc_nano.a(libc_a-memset.o)
 .data          0x0000000000000000        0x0 /opt/arm/arm-gnu-toolchain-12.2.rel1-x86_64-arm-none-eabi/bin/../lib/gcc/arm-none-eabi/12.2.1/../../../../arm-none-eabi/lib/thumb/v8-m.main+fp/hard/libc_nano.a(libc_a-memset.o)
 .bss           0x0000000000000000        0x0 /opt/arm/arm-gnu-toolchain-12.2.rel1-x86_64-arm-none-eabi/bin/../lib/gcc/arm-none-eabi/12.2.1/../../../../arm-none-eabi/lib/thumb/v8-m.main+fp/hard/libc_nano.a(libc_a-memset.o)
 .text          0x0000000000000000        0x0 /opt/arm/arm-gnu-toolchain-12.2.rel1-x86_64-arm-none-eabi/bin/../lib/gcc/arm-none-eabi/12.2.1/../../../../arm-none-eabi/lib/thumb/v8-m.main+fp/hard/libc_nano.a(libc_a-freer.o)
 .data          0x0000000000000000        0x0 /opt/arm/arm-gnu-toolchain-12.2.rel1-x86_64-arm-none-eabi/bin/../lib/gcc/arm-none-eabi/12.2.1/../../../../arm-none-eabi/lib/thumb/v8-m.main+fp/hard/libc_nano.a(libc_a-freer.o)
 .bss           0x0000000000000000        0x0 /opt/arm/arm-gnu-toolchain-12.2.rel1-x86_64-arm-none-eabi/bin/../lib/gcc/arm-none-eabi/12.2.1/../../../../arm-none-eabi/lib/thumb/v8-m.main+fp/hard/libc_nano.a(libc_a-freer.o)
 .text._free_r  0x0000000000000000       0x94 /opt/arm/arm-gnu-toolchain-12.2.rel1-x86_64-arm-none-eabi/bin/../lib/gcc/arm-none-eabi/12.2.1/../../../../arm-none-eabi/lib/thumb/v8-m.main+fp/hard/libc_nano.a(libc_a-freer.o)
 .debug_frame   0x0000000000000000       0x38 /opt/arm/arm-gnu-toolchain-12.2.rel1-x86_64-arm-none-eabi/bin/../lib/gcc/arm-none-eabi/12.2.1/../../../../arm-none-eabi/lib/thumb/v8-m.main+fp/hard/libc_nano.a(libc_a-freer.o)
 .ARM.attributes
                0x0000000000000000       0x38 /opt/arm/arm-gnu-toolchain-12.2.rel1-x86_64-arm-none-eabi/bin/../lib/gcc/arm-none-eabi/12.2.1/../../../../arm-none-eabi/lib/thumb/v8-m.main+fp/hard/libc_nano.a(libc_a-freer.o)
 .text          0x0000000000000000        0x0 /opt/arm/arm-gnu-toolchain-12.2.rel1-x86_64-arm-none-eabi/bin/../lib/gcc/arm-none-eabi/12.2.1/../../../../arm-none-eabi/lib/thumb/v8-m.main+fp/hard/libc_nano.a(libc_a-lock.o)
 .data          0x0000000000000000        0x0 /opt/arm/arm-gnu-toolchain-12.2.rel1-x86_64-arm-none-eabi/bin/../lib/gcc/arm-none-eabi/12.2.1/../../../../arm-none-eabi/lib/thumb/v8-m.main+fp/hard/libc_nano.a(libc_a-lock.o)
 .bss           0x0000000000000000        0x0 /opt/arm/arm-gnu-toolchain-12.2.rel1-x86_64-arm-none-eabi/bin/../lib/gcc/arm-none-eabi/12.2.1/../../../../arm-none-eabi/lib/thumb/v8-m.main+fp/hard/libc_nano.a(libc_a-lock.o)
 .text.__retarget_lock_init
                0x0000000000000000        0x2 /opt/arm/arm-gnu-toolchain-12.2.rel1-x86_64-arm-none-eabi/bin/../lib/gcc/arm-none-eabi/12.2.1/../../../../arm-none-eabi/lib/thumb/v8-m.main+fp/hard/libc_nano.a(libc_a-lock.o)
 .text.__retarget_lock_init_recursive
                0x0000000000000000        0x2 /opt/arm/arm-gnu-toolchain-12.2.rel1-x86_64-arm-none-eabi/bin/../lib/gcc/arm-none-eabi/12.2.1/../../../../arm-none-eabi/lib/thumb/v8-m.main+fp/hard/libc_nano.a(libc_a-lock.o)
 .text.__retarget_lock_close
                0x0000000000000000        0x2 /opt/arm/arm-gnu-toolchain-12.2.rel1-x86_64-arm-none-eabi/bin/../lib/gcc/arm-none-eabi/12.2.1/../../../../arm-none-eabi/lib/thumb/v8-m.main+fp/hard/libc_nano.a(libc_a-lock.o)
 .text.__retarget_lock_close_recursive
                0x0000000000000000        0x2 /opt/arm/arm-gnu-toolchain-12.2.rel1-x86_64-arm-none-eabi/bin/../lib/gcc/arm-none-eabi/12.2.1/../../../../arm-none-eabi/lib/thumb/v8-m.main+fp/hard/libc_nano.a(libc_a-lock.o)
 .text.__retarget_lock_acquire
                0x0000000000000000        0x2 /opt/arm/arm-gnu-toolchain-12.2.rel1-x86_64-arm-none-eabi/bin/../lib/gcc/arm-none-eabi/12.2.1/../../../../arm-none-eabi/lib/thumb/v8-m.main+fp/hard/libc_nano.a(libc_a-lock.o)
 .text.__retarget_lock_acquire_recursive
                0x0000000000000000        0x2 /opt/arm/arm-gnu-toolchain-12.2.rel1-x86_64-arm-none-eabi/bin/../lib/gcc/arm-none-eabi/12.2.1/../../../../arm-none-eabi/lib/thumb/v8-m.main+fp/hard/libc_nano.a(libc_a-lock.o)
 .text.__retarget_lock_try_acquire
                0x0000000000000000        0x4 /opt/arm/arm-gnu-toolchain-12.2.rel1-x86_64-arm-none-eabi/bin/../lib/gcc/arm-none-eabi/12.2.1/../../../../arm-none-eabi/lib/thumb/v8-m.main+fp/hard/libc_nano.a(libc_a-lock.o)
 .text.__retarget_lock_try_acquire_recursive
                0x0000000000000000        0x4 /opt/arm/arm-gnu-toolchain-12.2.rel1-x86_64-arm-none-eabi/bin/../lib/gcc/arm-none-eabi/12.2.1/../../../../arm-none-eabi/lib/thumb/v8-m.main+fp/hard/libc_nano.a(libc_a-lock.o)
 .text.__retarget_lock_release
                0x0000000000000000        0x2 /opt/arm/arm-gnu-toolchain-12.2.rel1-x86_64-arm-none-eabi/bin/../lib/gcc/arm-none-eabi/12.2.1/../../../../arm-none-eabi/lib/thumb/v8-m.main+fp/hard/libc_nano.a(libc_a-lock.o)
 .text.__retarget_lock_release_recursive
                0x0000000000000000        0x2 /opt/arm/arm-gnu-toolchain-12.2.rel1-x86_64-arm-none-eabi/bin/../lib/gcc/arm-none-eabi/12.2.1/../../../../arm-none-eabi/lib/thumb/v8-m.main+fp/hard/libc_nano.a(libc_a-lock.o)
 .bss.__lock___arc4random_mutex
                0x0000000000000000        0x1 /opt/arm/arm-gnu-toolchain-12.2.rel1-x86_64-arm-none-eabi/bin/../lib/gcc/arm-none-eabi/12.2.1/../../../../arm-none-eabi/lib/thumb/v8-m.main+fp/hard/libc_nano.a(libc_a-lock.o)
 .bss.__lock___dd_hash_mutex
                0x0000000000000000        0x1 /opt/arm/arm-gnu-toolchain-12.2.rel1-x86_64-arm-none-eabi/bin/../lib/gcc/arm-none-eabi/12.2.1/../../../../arm-none-eabi/lib/thumb/v8-m.main+fp/hard/libc_nano.a(libc_a-lock.o)
 .bss.__lock___tz_mutex
                0x0000000000000000        0x1 /opt/arm/arm-gnu-toolchain-12.2.rel1-x86_64-arm-none-eabi/bin/../lib/gcc/arm-none-eabi/12.2.1/../../../../arm-none-eabi/lib/thumb/v8-m.main+fp/hard/libc_nano.a(libc_a-lock.o)
 .bss.__lock___env_recursive_mutex
                0x0000000000000000        0x1 /opt/arm/arm-gnu-toolchain-12.2.rel1-x86_64-arm-none-eabi/bin/../lib/gcc/arm-none-eabi/12.2.1/../../../../arm-none-eabi/lib/thumb/v8-m.main+fp/hard/libc_nano.a(libc_a-lock.o)
 .bss.__lock___malloc_recursive_mutex
                0x0000000000000000        0x1 /opt/arm/arm-gnu-toolchain-12.2.rel1-x86_64-arm-none-eabi/bin/../lib/gcc/arm-none-eabi/12.2.1/../../../../arm-none-eabi/lib/thumb/v8-m.main+fp/hard/libc_nano.a(libc_a-lock.o)
 .bss.__lock___at_quick_exit_mutex
                0x0000000000000000        0x1 /opt/arm/arm-gnu-toolchain-12.2.rel1-x86_64-arm-none-eabi/bin/../lib/gcc/arm-none-eabi/12.2.1/../../../../arm-none-eabi/lib/thumb/v8-m.main+fp/hard/libc_nano.a(libc_a-lock.o)
 .bss.__lock___atexit_recursive_mutex
                0x0000000000000000        0x1 /opt/arm/arm-gnu-toolchain-12.2.rel1-x86_64-arm-none-eabi/bin/../lib/gcc/arm-none-eabi/12.2.1/../../../../arm-none-eabi/lib/thumb/v8-m.main+fp/hard/libc_nano.a(libc_a-lock.o)
 .bss.__lock___sfp_recursive_mutex
                0x0000000000000000        0x1 /opt/arm/arm-gnu-toolchain-12.2.rel1-x86_64-arm-none-eabi/bin/../lib/gcc/arm-none-eabi/12.2.1/../../../../arm-none-eabi/lib/thumb/v8-m.main+fp/hard/libc_nano.a(libc_a-lock.o)
 .debug_frame   0x0000000000000000       0xb0 /opt/arm/arm-gnu-toolchain-12.2.rel1-x86_64-arm-none-eabi/bin/../lib/gcc/arm-none-eabi/12.2.1/../../../../arm-none-eabi/lib/thumb/v8-m.main+fp/hard/libc_nano.a(libc_a-lock.o)
 .ARM.attributes
                0x0000000000000000       0x38 /opt/arm/arm-gnu-toolchain-12.2.rel1-x86_64-arm-none-eabi/bin/../lib/gcc/arm-none-eabi/12.2.1/../../../../arm-none-eabi/lib/thumb/v8-m.main+fp/hard/libc_nano.a(libc_a-lock.o)
 .text          0x0000000000000000        0x0 /opt/arm/arm-gnu-toolchain-12.2.rel1-x86_64-arm-none-eabi/bin/../lib/gcc/arm-none-eabi/12.2.1/../../../../arm-none-eabi/lib/thumb/v8-m.main+fp/hard/libc_nano.a(libc_a-closer.o)
 .data          0x0000000000000000        0x0 /opt/arm/arm-gnu-toolchain-12.2.rel1-x86_64-arm-none-eabi/bin/../lib/gcc/arm-none-eabi/12.2.1/../../../../arm-none-eabi/lib/thumb/v8-m.main+fp/hard/libc_nano.a(libc_a-closer.o)
 .bss           0x0000000000000000        0x0 /opt/arm/arm-gnu-toolchain-12.2.rel1-x86_64-arm-none-eabi/bin/../lib/gcc/arm-none-eabi/12.2.1/../../../../arm-none-eabi/lib/thumb/v8-m.main+fp/hard/libc_nano.a(libc_a-closer.o)
 .text._close_r
                0x0000000000000000       0x20 /opt/arm/arm-gnu-toolchain-12.2.rel1-x86_64-arm-none-eabi/bin/../lib/gcc/arm-none-eabi/12.2.1/../../../../arm-none-eabi/lib/thumb/v8-m.main+fp/hard/libc_nano.a(libc_a-closer.o)
 .debug_frame   0x0000000000000000       0x2c /opt/arm/arm-gnu-toolchain-12.2.rel1-x86_64-arm-none-eabi/bin/../lib/gcc/arm-none-eabi/12.2.1/../../../../arm-none-eabi/lib/thumb/v8-m.main+fp/hard/libc_nano.a(libc_a-closer.o)
 .ARM.attributes
                0x0000000000000000       0x38 /opt/arm/arm-gnu-toolchain-12.2.rel1-x86_64-arm-none-eabi/bin/../lib/gcc/arm-none-eabi/12.2.1/../../../../arm-none-eabi/lib/thumb/v8-m.main+fp/hard/libc_nano.a(libc_a-closer.o)
 .text          0x0000000000000000        0x0 /opt/arm/arm-gnu-toolchain-12.2.rel1-x86_64-arm-none-eabi/bin/../lib/gcc/arm-none-eabi/12.2.1/../../../../arm-none-eabi/lib/thumb/v8-m.main+fp/hard/libc_nano.a(libc_a-reent.o)
 .data          0x0000000000000000        0x0 /opt/arm/arm-gnu-toolchain-12.2.rel1-x86_64-arm-none-eabi/bin/../lib/gcc/arm-none-eabi/12.2.1/../../../../arm-none-eabi/lib/thumb/v8-m.main+fp/hard/libc_nano.a(libc_a-reent.o)
 .bss           0x0000000000000000        0x0 /opt/arm/arm-gnu-toolchain-12.2.rel1-x86_64-arm-none-eabi/bin/../lib/gcc/arm-none-eabi/12.2.1/../../../../arm-none-eabi/lib/thumb/v8-m.main+fp/hard/libc_nano.a(libc_a-reent.o)
 .text._reclaim_reent
                0x0000000000000000       0xac /opt/arm/arm-gnu-toolchain-12.2.rel1-x86_64-arm-none-eabi/bin/../lib/gcc/arm-none-eabi/12.2.1/../../../../arm-none-eabi/lib/thumb/v8-m.main+fp/hard/libc_nano.a(libc_a-reent.o)
 .bss.errno     0x0000000000000000        0x4 /opt/arm/arm-gnu-toolchain-12.2.rel1-x86_64-arm-none-eabi/bin/../lib/gcc/arm-none-eabi/12.2.1/../../../../arm-none-eabi/lib/thumb/v8-m.main+fp/hard/libc_nano.a(libc_a-reent.o)
 .debug_frame   0x0000000000000000       0x38 /opt/arm/arm-gnu-toolchain-12.2.rel1-x86_64-arm-none-eabi/bin/../lib/gcc/arm-none-eabi/12.2.1/../../../../arm-none-eabi/lib/thumb/v8-m.main+fp/hard/libc_nano.a(libc_a-reent.o)
 .ARM.attributes
                0x0000000000000000       0x38 /opt/arm/arm-gnu-toolchain-12.2.rel1-x86_64-arm-none-eabi/bin/../lib/gcc/arm-none-eabi/12.2.1/../../../../arm-none-eabi/lib/thumb/v8-m.main+fp/hard/libc_nano.a(libc_a-reent.o)
 .text          0x0000000000000000        0x0 /opt/arm/arm-gnu-toolchain-12.2.rel1-x86_64-arm-none-eabi/bin/../lib/gcc/arm-none-eabi/12.2.1/../../../../arm-none-eabi/lib/thumb/v8-m.main+fp/hard/libc_nano.a(libc_a-fflush.o)
 .data          0x0000000000000000        0x0 /opt/arm/arm-gnu-toolchain-12.2.rel1-x86_64-arm-none-eabi/bin/../lib/gcc/arm-none-eabi/12.2.1/../../../../arm-none-eabi/lib/thumb/v8-m.main+fp/hard/libc_nano.a(libc_a-fflush.o)
 .bss           0x0000000000000000        0x0 /opt/arm/arm-gnu-toolchain-12.2.rel1-x86_64-arm-none-eabi/bin/../lib/gcc/arm-none-eabi/12.2.1/../../../../arm-none-eabi/lib/thumb/v8-m.main+fp/hard/libc_nano.a(libc_a-fflush.o)
 .text.__sflush_r
                0x0000000000000000      0x106 /opt/arm/arm-gnu-toolchain-12.2.rel1-x86_64-arm-none-eabi/bin/../lib/gcc/arm-none-eabi/12.2.1/../../../../arm-none-eabi/lib/thumb/v8-m.main+fp/hard/libc_nano.a(libc_a-fflush.o)
 .text._fflush_r
                0x0000000000000000       0x50 /opt/arm/arm-gnu-toolchain-12.2.rel1-x86_64-arm-none-eabi/bin/../lib/gcc/arm-none-eabi/12.2.1/../../../../arm-none-eabi/lib/thumb/v8-m.main+fp/hard/libc_nano.a(libc_a-fflush.o)
 .text.fflush   0x0000000000000000       0x28 /opt/arm/arm-gnu-toolchain-12.2.rel1-x86_64-arm-none-eabi/bin/../lib/gcc/arm-none-eabi/12.2.1/../../../../arm-none-eabi/lib/thumb/v8-m.main+fp/hard/libc_nano.a(libc_a-fflush.o)
 .debug_frame   0x0000000000000000       0x5c /opt/arm/arm-gnu-toolchain-12.2.rel1-x86_64-arm-none-eabi/bin/../lib/gcc/arm-none-eabi/12.2.1/../../../../arm-none-eabi/lib/thumb/v8-m.main+fp/hard/libc_nano.a(libc_a-fflush.o)
 .ARM.attributes
                0x0000000000000000       0x38 /opt/arm/arm-gnu-toolchain-12.2.rel1-x86_64-arm-none-eabi/bin/../lib/gcc/arm-none-eabi/12.2.1/../../../../arm-none-eabi/lib/thumb/v8-m.main+fp/hard/libc_nano.a(libc_a-fflush.o)
 .text          0x0000000000000000        0x0 /opt/arm/arm-gnu-toolchain-12.2.rel1-x86_64-arm-none-eabi/bin/../lib/gcc/arm-none-eabi/12.2.1/../../../../arm-none-eabi/lib/thumb/v8-m.main+fp/hard/libc_nano.a(libc_a-lseekr.o)
 .data          0x0000000000000000        0x0 /opt/arm/arm-gnu-toolchain-12.2.rel1-x86_64-arm-none-eabi/bin/../lib/gcc/arm-none-eabi/12.2.1/../../../../arm-none-eabi/lib/thumb/v8-m.main+fp/hard/libc_nano.a(libc_a-lseekr.o)
 .bss           0x0000000000000000        0x0 /opt/arm/arm-gnu-toolchain-12.2.rel1-x86_64-arm-none-eabi/bin/../lib/gcc/arm-none-eabi/12.2.1/../../../../arm-none-eabi/lib/thumb/v8-m.main+fp/hard/libc_nano.a(libc_a-lseekr.o)
 .text._lseek_r
                0x0000000000000000       0x24 /opt/arm/arm-gnu-toolchain-12.2.rel1-x86_64-arm-none-eabi/bin/../lib/gcc/arm-none-eabi/12.2.1/../../../../arm-none-eabi/lib/thumb/v8-m.main+fp/hard/libc_nano.a(libc_a-lseekr.o)
 .debug_frame   0x0000000000000000       0x2c /opt/arm/arm-gnu-toolchain-12.2.rel1-x86_64-arm-none-eabi/bin/../lib/gcc/arm-none-eabi/12.2.1/../../../../arm-none-eabi/lib/thumb/v8-m.main+fp/hard/libc_nano.a(libc_a-lseekr.o)
 .ARM.attributes
                0x0000000000000000       0x38 /opt/arm/arm-gnu-toolchain-12.2.rel1-x86_64-arm-none-eabi/bin/../lib/gcc/arm-none-eabi/12.2.1/../../../../arm-none-eabi/lib/thumb/v8-m.main+fp/hard/libc_nano.a(libc_a-lseekr.o)
 .text          0x0000000000000000        0x0 /opt/arm/arm-gnu-toolchain-12.2.rel1-x86_64-arm-none-eabi/bin/../lib/gcc/arm-none-eabi/12.2.1/../../../../arm-none-eabi/lib/thumb/v8-m.main+fp/hard/libc_nano.a(libc_a-readr.o)
 .data          0x0000000000000000        0x0 /opt/arm/arm-gnu-toolchain-12.2.rel1-x86_64-arm-none-eabi/bin/../lib/gcc/arm-none-eabi/12.2.1/../../../../arm-none-eabi/lib/thumb/v8-m.main+fp/hard/libc_nano.a(libc_a-readr.o)
 .bss           0x0000000000000000        0x0 /opt/arm/arm-gnu-toolchain-12.2.rel1-x86_64-arm-none-eabi/bin/../lib/gcc/arm-none-eabi/12.2.1/../../../../arm-none-eabi/lib/thumb/v8-m.main+fp/hard/libc_nano.a(libc_a-readr.o)
 .text._read_r  0x0000000000000000       0x24 /opt/arm/arm-gnu-toolchain-12.2.rel1-x86_64-arm-none-eabi/bin/../lib/gcc/arm-none-eabi/12.2.1/../../../../arm-none-eabi/lib/thumb/v8-m.main+fp/hard/libc_nano.a(libc_a-readr.o)
 .debug_frame   0x0000000000000000       0x2c /opt/arm/arm-gnu-toolchain-12.2.rel1-x86_64-arm-none-eabi/bin/../lib/gcc/arm-none-eabi/12.2.1/../../../../arm-none-eabi/lib/thumb/v8-m.main+fp/hard/libc_nano.a(libc_a-readr.o)
 .ARM.attributes
                0x0000000000000000       0x38 /opt/arm/arm-gnu-toolchain-12.2.rel1-x86_64-arm-none-eabi/bin/../lib/gcc/arm-none-eabi/12.2.1/../../../../arm-none-eabi/lib/thumb/v8-m.main+fp/hard/libc_nano.a(libc_a-readr.o)
 .text          0x0000000000000000        0x0 /opt/arm/arm-gnu-toolchain-12.2.rel1-x86_64-arm-none-eabi/bin/../lib/gcc/arm-none-eabi/12.2.1/../../../../arm-none-eabi/lib/thumb/v8-m.main+fp/hard/libcr_newlib_nohost.a(_exit.o)
 .data          0x0000000000000000        0x0 /opt/arm/arm-gnu-toolchain-12.2.rel1-x86_64-arm-none-eabi/bin/../lib/gcc/arm-none-eabi/12.2.1/../../../../arm-none-eabi/lib/thumb/v8-m.main+fp/hard/libcr_newlib_nohost.a(_exit.o)
 .bss           0x0000000000000000        0x0 /opt/arm/arm-gnu-toolchain-12.2.rel1-x86_64-arm-none-eabi/bin/../lib/gcc/arm-none-eabi/12.2.1/../../../../arm-none-eabi/lib/thumb/v8-m.main+fp/hard/libcr_newlib_nohost.a(_exit.o)
 .text          0x0000000000000000        0x0 /opt/arm/arm-gnu-toolchain-12.2.rel1-x86_64-arm-none-eabi/bin/../lib/gcc/arm-none-eabi/12.2.1/thumb/v8-m.main+fp/hard/crtend.o
 .data          0x0000000000000000        0x0 /opt/arm/arm-gnu-toolchain-12.2.rel1-x86_64-arm-none-eabi/bin/../lib/gcc/arm-none-eabi/12.2.1/thumb/v8-m.main+fp/hard/crtend.o
 .bss           0x0000000000000000        0x0 /opt/arm/arm-gnu-toolchain-12.2.rel1-x86_64-arm-none-eabi/bin/../lib/gcc/arm-none-eabi/12.2.1/thumb/v8-m.main+fp/hard/crtend.o
 .rodata.all_implied_fbits
                0x0000000000000000       0x24 /opt/arm/arm-gnu-toolchain-12.2.rel1-x86_64-arm-none-eabi/bin/../lib/gcc/arm-none-eabi/12.2.1/thumb/v8-m.main+fp/hard/crtend.o
 .eh_frame      0x0000000000000000        0x4 /opt/arm/arm-gnu-toolchain-12.2.rel1-x86_64-arm-none-eabi/bin/../lib/gcc/arm-none-eabi/12.2.1/thumb/v8-m.main+fp/hard/crtend.o
 .text          0x0000000000000000        0x0 /opt/arm/arm-gnu-toolchain-12.2.rel1-x86_64-arm-none-eabi/bin/../lib/gcc/arm-none-eabi/12.2.1/thumb/v8-m.main+fp/hard/crtn.o
 .data          0x0000000000000000        0x0 /opt/arm/arm-gnu-toolchain-12.2.rel1-x86_64-arm-none-eabi/bin/../lib/gcc/arm-none-eabi/12.2.1/thumb/v8-m.main+fp/hard/crtn.o
 .bss           0x0000000000000000        0x0 /opt/arm/arm-gnu-toolchain-12.2.rel1-x86_64-arm-none-eabi/bin/../lib/gcc/arm-none-eabi/12.2.1/thumb/v8-m.main+fp/hard/crtn.o

Memory Configuration

Name             Origin             Length             Attributes
m_interrupts     0x0000000000000000 0x0000000000000400 xr
m_text           0x0000000000000400 0x000000000003d400 xr
m_data           0x0000000020000000 0x000000000001c000 rw
m_sramx          0x0000000004000000 0x0000000000004000 rw
*default*        0x0000000000000000 0xffffffffffffffff

Linker script and memory map

LOAD /opt/arm/arm-gnu-toolchain-12.2.rel1-x86_64-arm-none-eabi/bin/../lib/gcc/arm-none-eabi/12.2.1/thumb/v8-m.main+fp/hard/crti.o
LOAD /opt/arm/arm-gnu-toolchain-12.2.rel1-x86_64-arm-none-eabi/bin/../lib/gcc/arm-none-eabi/12.2.1/thumb/v8-m.main+fp/hard/crtbegin.o
LOAD /opt/arm/arm-gnu-toolchain-12.2.rel1-x86_64-arm-none-eabi/bin/../lib/gcc/arm-none-eabi/12.2.1/../../../../arm-none-eabi/lib/thumb/v8-m.main+fp/hard/crt0.o
LOAD CMakeFiles/freertos_hello.elf.dir/project/src/freertos_hello.c.obj
LOAD CMakeFiles/freertos_hello.elf.dir/project/board/clock_config.c.obj
LOAD CMakeFiles/freertos_hello.elf.dir/project/board/pin_mux.c.obj
LOAD CMakeFiles/freertos_hello.elf.dir/project/board/peripherals.c.obj
LOAD CMakeFiles/freertos_hello.elf.dir/project/sdk/components/lists/fsl_component_generic_list.c.obj
LOAD CMakeFiles/freertos_hello.elf.dir/project/sdk/components/serial_manager/fsl_component_serial_manager.c.obj
LOAD CMakeFiles/freertos_hello.elf.dir/project/sdk/components/serial_manager/fsl_component_serial_port_uart.c.obj
LOAD CMakeFiles/freertos_hello.elf.dir/project/sdk/components/uart/fsl_adapter_usart.c.obj
LOAD CMakeFiles/freertos_hello.elf.dir/project/sdk/devices/LPC5536/gcc/startup_LPC5536.S.obj
LOAD CMakeFiles/freertos_hello.elf.dir/project/sdk/devices/LPC5536/system_LPC5536.c.obj
LOAD CMakeFiles/freertos_hello.elf.dir/project/sdk/devices/LPC5536/drivers/fsl_clock.c.obj
LOAD CMakeFiles/freertos_hello.elf.dir/project/sdk/devices/LPC5536/drivers/fsl_common.c.obj
LOAD CMakeFiles/freertos_hello.elf.dir/project/sdk/devices/LPC5536/drivers/fsl_common_arm.c.obj
LOAD CMakeFiles/freertos_hello.elf.dir/project/sdk/devices/LPC5536/drivers/fsl_flexcomm.c.obj
LOAD CMakeFiles/freertos_hello.elf.dir/project/sdk/devices/LPC5536/drivers/fsl_usart.c.obj
LOAD CMakeFiles/freertos_hello.elf.dir/project/sdk/devices/LPC5536/drivers/fsl_gpio.c.obj
LOAD CMakeFiles/freertos_hello.elf.dir/project/sdk/devices/LPC5536/drivers/fsl_power.c.obj
LOAD CMakeFiles/freertos_hello.elf.dir/project/sdk/devices/LPC5536/drivers/fsl_reset.c.obj
LOAD CMakeFiles/freertos_hello.elf.dir/project/sdk/rtos/freertos/freertos-kernel/croutine.c.obj
LOAD CMakeFiles/freertos_hello.elf.dir/project/sdk/rtos/freertos/freertos-kernel/event_groups.c.obj
LOAD CMakeFiles/freertos_hello.elf.dir/project/sdk/rtos/freertos/freertos-kernel/list.c.obj
LOAD CMakeFiles/freertos_hello.elf.dir/project/sdk/rtos/freertos/freertos-kernel/queue.c.obj
LOAD CMakeFiles/freertos_hello.elf.dir/project/sdk/rtos/freertos/freertos-kernel/stream_buffer.c.obj
LOAD CMakeFiles/freertos_hello.elf.dir/project/sdk/rtos/freertos/freertos-kernel/tasks.c.obj
LOAD CMakeFiles/freertos_hello.elf.dir/project/sdk/rtos/freertos/freertos-kernel/timers.c.obj
LOAD CMakeFiles/freertos_hello.elf.dir/project/sdk/rtos/freertos/freertos-kernel/portable/GCC/ARM_CM33_NTZ/non_secure/port.c.obj
LOAD CMakeFiles/freertos_hello.elf.dir/project/sdk/rtos/freertos/freertos-kernel/portable/GCC/ARM_CM33_NTZ/non_secure/portasm.c.obj
LOAD CMakeFiles/freertos_hello.elf.dir/project/sdk/rtos/freertos/freertos-kernel/portable/MemMang/heap_4.c.obj
LOAD CMakeFiles/freertos_hello.elf.dir/project/sdk/devices/LPC5536/utilities/fsl_sbrk.c.obj
LOAD CMakeFiles/freertos_hello.elf.dir/project/sdk/devices/LPC5536/utilities/fsl_syscall_stub.c.obj
LOAD CMakeFiles/freertos_hello.elf.dir/project/sdk/devices/LPC5536/utilities/fsl_memcpy.S.obj
LOAD CMakeFiles/freertos_hello.elf.dir/project/sdk/devices/LPC5536/utilities/fsl_assert.c.obj
LOAD CMakeFiles/freertos_hello.elf.dir/project/sdk/devices/LPC5536/utilities/str/fsl_str.c.obj
LOAD CMakeFiles/freertos_hello.elf.dir/project/sdk/devices/LPC5536/utilities/debug_console/fsl_debug_console.c.obj
START GROUP
LOAD /opt/arm/arm-gnu-toolchain-12.2.rel1-x86_64-arm-none-eabi/bin/../lib/gcc/arm-none-eabi/12.2.1/thumb/v8-m.main+fp/hard/libgcc.a
LOAD /opt/arm/arm-gnu-toolchain-12.2.rel1-x86_64-arm-none-eabi/bin/../lib/gcc/arm-none-eabi/12.2.1/../../../../arm-none-eabi/lib/thumb/v8-m.main+fp/hard/libc_nano.a
LOAD /opt/arm/arm-gnu-toolchain-12.2.rel1-x86_64-arm-none-eabi/bin/../lib/gcc/arm-none-eabi/12.2.1/../../../../arm-none-eabi/lib/thumb/v8-m.main+fp/hard/libm.a
LOAD /opt/arm/arm-gnu-toolchain-12.2.rel1-x86_64-arm-none-eabi/bin/../lib/gcc/arm-none-eabi/12.2.1/../../../../arm-none-eabi/lib/thumb/v8-m.main+fp/hard/libcr_newlib_nohost.a
END GROUP
START GROUP
LOAD /opt/arm/arm-gnu-toolchain-12.2.rel1-x86_64-arm-none-eabi/bin/../lib/gcc/arm-none-eabi/12.2.1/thumb/v8-m.main+fp/hard/libgcc.a
LOAD /opt/arm/arm-gnu-toolchain-12.2.rel1-x86_64-arm-none-eabi/bin/../lib/gcc/arm-none-eabi/12.2.1/../../../../arm-none-eabi/lib/thumb/v8-m.main+fp/hard/libg_nano.a
LOAD /opt/arm/arm-gnu-toolchain-12.2.rel1-x86_64-arm-none-eabi/bin/../lib/gcc/arm-none-eabi/12.2.1/../../../../arm-none-eabi/lib/thumb/v8-m.main+fp/hard/libc_nano.a
END GROUP
START GROUP
LOAD /opt/arm/arm-gnu-toolchain-12.2.rel1-x86_64-arm-none-eabi/bin/../lib/gcc/arm-none-eabi/12.2.1/thumb/v8-m.main+fp/hard/libgcc.a
LOAD /opt/arm/arm-gnu-toolchain-12.2.rel1-x86_64-arm-none-eabi/bin/../lib/gcc/arm-none-eabi/12.2.1/../../../../arm-none-eabi/lib/thumb/v8-m.main+fp/hard/libc_nano.a
LOAD /opt/arm/arm-gnu-toolchain-12.2.rel1-x86_64-arm-none-eabi/bin/../lib/gcc/arm-none-eabi/12.2.1/../../../../arm-none-eabi/lib/thumb/v8-m.main+fp/hard/libnosys.a
END GROUP
START GROUP
LOAD /opt/arm/arm-gnu-toolchain-12.2.rel1-x86_64-arm-none-eabi/bin/../lib/gcc/arm-none-eabi/12.2.1/thumb/v8-m.main+fp/hard/libgcc.a
LOAD /opt/arm/arm-gnu-toolchain-12.2.rel1-x86_64-arm-none-eabi/bin/../lib/gcc/arm-none-eabi/12.2.1/../../../../arm-none-eabi/lib/thumb/v8-m.main+fp/hard/libc_nano.a
LOAD /opt/arm/arm-gnu-toolchain-12.2.rel1-x86_64-arm-none-eabi/bin/../lib/gcc/arm-none-eabi/12.2.1/../../../../arm-none-eabi/lib/thumb/v8-m.main+fp/hard/libnosys.a
END GROUP
LOAD /opt/arm/arm-gnu-toolchain-12.2.rel1-x86_64-arm-none-eabi/bin/../lib/gcc/arm-none-eabi/12.2.1/thumb/v8-m.main+fp/hard/crtend.o
LOAD /opt/arm/arm-gnu-toolchain-12.2.rel1-x86_64-arm-none-eabi/bin/../lib/gcc/arm-none-eabi/12.2.1/thumb/v8-m.main+fp/hard/crtn.o
                0x0000000000000400                HEAP_SIZE = DEFINED (__heap_size__)?__heap_size__:0x400
                0x0000000000000800                STACK_SIZE = DEFINED (__stack_size__)?__stack_size__:0x800
                0x0000000000000000                RETENTION_RAMSIZE = DEFINED (__pkc__)?0x4000:DEFINED (__power_down__)?0x604:0x0
                0x0000000000000000                POWERQUAD_RAMSIZE = DEFINED (__powerquad__)?0x4000:0x0
                0x0000000000000000                TEXT_START = DEFINED (__qspi_xip__)?0x8001000:0x0
                0x000000000003d800                TEXT_SIZE = DEFINED (__qspi_xip__)?0x7fff000:0x3d800

.interrupts     0x0000000000000000      0x220
                0x0000000000000000                . = ALIGN (0x4)
 *(.isr_vector)
 .isr_vector    0x0000000000000000      0x220 CMakeFiles/freertos_hello.elf.dir/project/sdk/devices/LPC5536/gcc/startup_LPC5536.S.obj
                0x0000000000000000                __Vectors
                0x0000000000000220                . = ALIGN (0x4)

.text           0x0000000000000400     0x495c
                0x0000000000000400                . = ALIGN (0x4)
 *(.text)
 .text          0x0000000000000400       0x7c /opt/arm/arm-gnu-toolchain-12.2.rel1-x86_64-arm-none-eabi/bin/../lib/gcc/arm-none-eabi/12.2.1/../../../../arm-none-eabi/lib/thumb/v8-m.main+fp/hard/crt0.o
                0x0000000000000400                _stack_init
                0x0000000000000408                _mainCRTStartup
                0x0000000000000408                _start
 .text          0x000000000000047c      0x47c CMakeFiles/freertos_hello.elf.dir/project/sdk/devices/LPC5536/gcc/startup_LPC5536.S.obj
                0x000000000000047c                Reset_Handler
                0x000000000000050c                Reserved87_DriverIRQHandler
                0x000000000000050c                HSCMP1_DriverIRQHandler
                0x000000000000050c                DebugMon_Handler
                0x000000000000050c                FLEXPWM1_COMPARE2_DriverIRQHandler
                0x000000000000050c                I3C0_DriverIRQHandler
                0x000000000000050c                PKC_ERR_DriverIRQHandler
                0x000000000000050c                DMA0_DriverIRQHandler
                0x000000000000050c                ENC0_IDX_DriverIRQHandler
                0x000000000000050c                FLEXPWM0_RELOAD_ERROR_DriverIRQHandler
                0x000000000000050c                Reserved133_DriverIRQHandler
                0x000000000000050c                RAM_PARITY_ECC_ERR_DriverIRQHandler
                0x000000000000050c                SEC_VIO_DriverIRQHandler
                0x000000000000050c                PKC_DriverIRQHandler
                0x000000000000050c                CAN0_IRQ0_DriverIRQHandler
                0x000000000000050c                Reserved64_DriverIRQHandler
                0x000000000000050c                PIN_INT3_DriverIRQHandler
                0x000000000000050c                PIN_INT2_DriverIRQHandler
                0x000000000000050c                ELS_DriverIRQHandler
                0x000000000000050c                FLEXPWM1_COMPARE0_DriverIRQHandler
                0x000000000000050c                Reserved56_DriverIRQHandler
                0x000000000000050c                PIN_INT0_DriverIRQHandler
                0x000000000000050c                FLEXPWM0_RELOAD3_DriverIRQHandler
                0x000000000000050c                Reserved63_DriverIRQHandler
                0x000000000000050c                DAC1_DriverIRQHandler
                0x000000000000050c                CTIMER2_DriverIRQHandler
                0x000000000000050c                UsageFault_Handler
                0x000000000000050c                Freqme_DriverIRQHandler
                0x000000000000050c                FLEXPWM1_RELOAD2_DriverIRQHandler
                0x000000000000050c                Reserved80_DriverIRQHandler
                0x000000000000050c                DefaultISR
                0x000000000000050c                USB0_DriverIRQHandler
                0x000000000000050c                ENC0_WDG_DriverIRQHandler
                0x000000000000050c                ELS_ERR_DriverIRQHandler
                0x000000000000050c                DAC0_DriverIRQHandler
                0x000000000000050c                MRT0_DriverIRQHandler
                0x000000000000050c                UTICK0_DriverIRQHandler
                0x000000000000050c                PIN_INT4_DriverIRQHandler
                0x000000000000050c                PIN_INT5_DriverIRQHandler
                0x000000000000050c                FLEXPWM0_RELOAD0_DriverIRQHandler
                0x000000000000050c                SEC_GPIO_INT0_IRQ0_DriverIRQHandler
                0x000000000000050c                Reserved84_DriverIRQHandler
                0x000000000000050c                CTIMER4_DriverIRQHandler
                0x000000000000050c                GINT1_DriverIRQHandler
                0x000000000000050c                FLEXPWM0_FAULT_DriverIRQHandler
                0x000000000000050c                FLEXPWM0_RELOAD2_DriverIRQHandler
                0x000000000000050c                PIN_INT7_DriverIRQHandler
                0x000000000000050c                EZH_ARCH_B0_DriverIRQHandler
                0x000000000000050c                CAN0_IRQ1_DriverIRQHandler
                0x000000000000050c                POWERQUAD_DriverIRQHandler
                0x000000000000050c                USB0_NEEDCLK_DriverIRQHandler
                0x000000000000050c                FLASH_DriverIRQHandler
                0x000000000000050c                FLEXPWM0_COMPARE1_DriverIRQHandler
                0x000000000000050c                FLEXPWM1_FAULT_DriverIRQHandler
                0x000000000000050c                CTIMER0_DriverIRQHandler
                0x000000000000050c                Reserved79_DriverIRQHandler
                0x000000000000050c                CTIMER1_DriverIRQHandler
                0x000000000000050c                SecureFault_Handler
                0x000000000000050c                ADC1_DriverIRQHandler
                0x000000000000050c                ENC0_HOME_DriverIRQHandler
                0x000000000000050c                PIN_INT6_DriverIRQHandler
                0x000000000000050c                FlexSPI0_DriverIRQHandler
                0x000000000000050c                PIN_INT1_DriverIRQHandler
                0x000000000000050c                CTIMER3_DriverIRQHandler
                0x000000000000050c                Reserved89_DriverIRQHandler
                0x000000000000050c                HWVAD0_DriverIRQHandler
                0x000000000000050c                Reserved130_DriverIRQHandler
                0x000000000000050c                FLEXPWM0_CAPTURE_DriverIRQHandler
                0x000000000000050c                Reserved83_DriverIRQHandler
                0x000000000000050c                FLEXPWM0_COMPARE2_DriverIRQHandler
                0x000000000000050c                Reserved72_DriverIRQHandler
                0x000000000000050c                Tamper_DriverIRQHandler
                0x000000000000050c                Reserved61_DriverIRQHandler
                0x000000000000050c                SEC_GPIO_INT0_IRQ1_DriverIRQHandler
                0x000000000000050c                WAKEUP_DriverIRQHandler
                0x000000000000050c                RTC_DriverIRQHandler
                0x000000000000050c                FLEXPWM0_RELOAD1_DriverIRQHandler
                0x000000000000050c                FLEXPWM1_COMPARE1_DriverIRQHandler
                0x000000000000050c                HSCMP2_DriverIRQHandler
                0x000000000000050c                Reserved126_DriverIRQHandler
                0x000000000000050c                Reserved62_DriverIRQHandler
                0x000000000000050c                MemManage_Handler
                0x000000000000050c                CDOG_DriverIRQHandler
                0x000000000000050c                FLEXPWM1_RELOAD_ERROR_DriverIRQHandler
                0x000000000000050c                ENC1_WDG_DriverIRQHandler
                0x000000000000050c                FLEXPWM1_COMPARE3_DriverIRQHandler
                0x000000000000050c                DMA1_DriverIRQHandler
                0x000000000000050c                DMIC_DriverIRQHandler
                0x000000000000050c                FLEXPWM1_CAPTURE_DriverIRQHandler
                0x000000000000050c                FLEXPWM1_RELOAD3_DriverIRQHandler
                0x000000000000050c                FLEXPWM0_COMPARE3_DriverIRQHandler
                0x000000000000050c                Reserved77_DriverIRQHandler
                0x000000000000050c                Reserved131_DriverIRQHandler
                0x000000000000050c                ENC1_HOME_DriverIRQHandler
                0x000000000000050c                FLEXPWM1_RELOAD0_DriverIRQHandler
                0x000000000000050c                Reserved127_DriverIRQHandler
                0x000000000000050c                Reserved85_DriverIRQHandler
                0x000000000000050c                ENC1_IDX_DriverIRQHandler
                0x000000000000050c                Reserved88_DriverIRQHandler
                0x000000000000050c                ADC0_DriverIRQHandler
                0x000000000000050c                FLEXPWM1_RELOAD1_DriverIRQHandler
                0x000000000000050c                DAC2_DriverIRQHandler
                0x000000000000050c                HSCMP0_DriverIRQHandler
                0x000000000000050c                GINT0_DriverIRQHandler
                0x000000000000050c                FLEXPWM0_COMPARE0_DriverIRQHandler
                0x000000000000050c                Reserved132_DriverIRQHandler
                0x000000000000050c                ENC0_COMPARE_DriverIRQHandler
                0x000000000000050c                ACMP_DriverIRQHandler
                0x000000000000050c                Reserved58_DriverIRQHandler
                0x000000000000050c                Reserved57_DriverIRQHandler
                0x000000000000050c                BusFault_Handler
                0x000000000000050c                Reserved86_DriverIRQHandler
                0x000000000000050c                SCT0_DriverIRQHandler
                0x000000000000050c                WDT_BOD_DriverIRQHandler
                0x000000000000050c                ENC1_COMPARE_DriverIRQHandler
                0x000000000000050c                ELS_IRQ1_DriverIRQHandler
                0x000000000000050c                OS_EVENT_DriverIRQHandler
                0x000000000000050c                SEC_HYPERVISOR_CALL_DriverIRQHandler
                0x0000000000000510                NMI_Handler
                0x0000000000000514                HardFault_Handler
                0x0000000000000524                WDT_BOD_IRQHandler
                0x0000000000000528                DMA0_IRQHandler
                0x000000000000052c                GINT0_IRQHandler
                0x0000000000000530                GINT1_IRQHandler
                0x0000000000000534                PIN_INT0_IRQHandler
                0x0000000000000538                PIN_INT1_IRQHandler
                0x000000000000053c                PIN_INT2_IRQHandler
                0x0000000000000540                PIN_INT3_IRQHandler
                0x0000000000000544                UTICK0_IRQHandler
                0x0000000000000548                MRT0_IRQHandler
                0x000000000000054c                CTIMER0_IRQHandler
                0x0000000000000550                CTIMER1_IRQHandler
                0x0000000000000554                SCT0_IRQHandler
                0x0000000000000558                CTIMER3_IRQHandler
                0x000000000000055c                FLEXCOMM0_IRQHandler
                0x0000000000000560                FLEXCOMM1_IRQHandler
                0x0000000000000564                FLEXCOMM2_IRQHandler
                0x0000000000000568                FLEXCOMM3_IRQHandler
                0x000000000000056c                FLEXCOMM4_IRQHandler
                0x0000000000000570                FLEXCOMM5_IRQHandler
                0x0000000000000574                FLEXCOMM6_IRQHandler
                0x0000000000000578                FLEXCOMM7_IRQHandler
                0x000000000000057c                ADC0_IRQHandler
                0x0000000000000580                ADC1_IRQHandler
                0x0000000000000584                ACMP_IRQHandler
                0x0000000000000588                DMIC_IRQHandler
                0x000000000000058c                HWVAD0_IRQHandler
                0x0000000000000590                USB0_NEEDCLK_IRQHandler
                0x0000000000000594                USB0_IRQHandler
                0x0000000000000598                RTC_IRQHandler
                0x000000000000059c                EZH_ARCH_B0_IRQHandler
                0x00000000000005a0                WAKEUP_IRQHandler
                0x00000000000005a4                PIN_INT4_IRQHandler
                0x00000000000005a8                PIN_INT5_IRQHandler
                0x00000000000005ac                PIN_INT6_IRQHandler
                0x00000000000005b0                PIN_INT7_IRQHandler
                0x00000000000005b4                CTIMER2_IRQHandler
                0x00000000000005b8                CTIMER4_IRQHandler
                0x00000000000005bc                OS_EVENT_IRQHandler
                0x00000000000005c0                FlexSPI0_IRQHandler
                0x00000000000005c4                Reserved56_IRQHandler
                0x00000000000005c8                Reserved57_IRQHandler
                0x00000000000005cc                Reserved58_IRQHandler
                0x00000000000005d0                CAN0_IRQ0_IRQHandler
                0x00000000000005d4                CAN0_IRQ1_IRQHandler
                0x00000000000005d8                Reserved61_IRQHandler
                0x00000000000005dc                Reserved62_IRQHandler
                0x00000000000005e0                Reserved63_IRQHandler
                0x00000000000005e4                Reserved64_IRQHandler
                0x00000000000005e8                SEC_HYPERVISOR_CALL_IRQHandler
                0x00000000000005ec                SEC_GPIO_INT0_IRQ0_IRQHandler
                0x00000000000005f0                SEC_GPIO_INT0_IRQ1_IRQHandler
                0x00000000000005f4                Freqme_IRQHandler
                0x00000000000005f8                SEC_VIO_IRQHandler
                0x00000000000005fc                ELS_IRQHandler
                0x0000000000000600                PKC_IRQHandler
                0x0000000000000604                Reserved72_IRQHandler
                0x0000000000000608                POWERQUAD_IRQHandler
                0x000000000000060c                DMA1_IRQHandler
                0x0000000000000610                FLEXCOMM8_IRQHandler
                0x0000000000000614                CDOG_IRQHandler
                0x0000000000000618                Reserved77_IRQHandler
                0x000000000000061c                I3C0_IRQHandler
                0x0000000000000620                Reserved79_IRQHandler
                0x0000000000000624                Reserved80_IRQHandler
                0x0000000000000628                ELS_IRQ1_IRQHandler
                0x000000000000062c                Tamper_IRQHandler
                0x0000000000000630                Reserved83_IRQHandler
                0x0000000000000634                Reserved84_IRQHandler
                0x0000000000000638                Reserved85_IRQHandler
                0x000000000000063c                Reserved86_IRQHandler
                0x0000000000000640                Reserved87_IRQHandler
                0x0000000000000644                Reserved88_IRQHandler
                0x0000000000000648                Reserved89_IRQHandler
                0x000000000000064c                DAC0_IRQHandler
                0x0000000000000650                DAC1_IRQHandler
                0x0000000000000654                DAC2_IRQHandler
                0x0000000000000658                HSCMP0_IRQHandler
                0x000000000000065c                HSCMP1_IRQHandler
                0x0000000000000660                HSCMP2_IRQHandler
                0x0000000000000664                FLEXPWM0_CAPTURE_IRQHandler
                0x0000000000000668                FLEXPWM0_FAULT_IRQHandler
                0x000000000000066c                FLEXPWM0_RELOAD_ERROR_IRQHandler
                0x0000000000000670                FLEXPWM0_COMPARE0_IRQHandler
                0x0000000000000674                FLEXPWM0_RELOAD0_IRQHandler
                0x0000000000000678                FLEXPWM0_COMPARE1_IRQHandler
                0x000000000000067c                FLEXPWM0_RELOAD1_IRQHandler
                0x0000000000000680                FLEXPWM0_COMPARE2_IRQHandler
                0x0000000000000684                FLEXPWM0_RELOAD2_IRQHandler
                0x0000000000000688                FLEXPWM0_COMPARE3_IRQHandler
                0x000000000000068c                FLEXPWM0_RELOAD3_IRQHandler
                0x0000000000000690                FLEXPWM1_CAPTURE_IRQHandler
                0x0000000000000694                FLEXPWM1_FAULT_IRQHandler
                0x0000000000000698                FLEXPWM1_RELOAD_ERROR_IRQHandler
                0x000000000000069c                FLEXPWM1_COMPARE0_IRQHandler
                0x00000000000006a0                FLEXPWM1_RELOAD0_IRQHandler
                0x00000000000006a4                FLEXPWM1_COMPARE1_IRQHandler
                0x00000000000006a8                FLEXPWM1_RELOAD1_IRQHandler
                0x00000000000006ac                FLEXPWM1_COMPARE2_IRQHandler
                0x00000000000006b0                FLEXPWM1_RELOAD2_IRQHandler
                0x00000000000006b4                FLEXPWM1_COMPARE3_IRQHandler
                0x00000000000006b8                FLEXPWM1_RELOAD3_IRQHandler
                0x00000000000006bc                ENC0_COMPARE_IRQHandler
                0x00000000000006c0                ENC0_HOME_IRQHandler
                0x00000000000006c4                ENC0_WDG_IRQHandler
                0x00000000000006c8                ENC0_IDX_IRQHandler
                0x00000000000006cc                ENC1_COMPARE_IRQHandler
                0x00000000000006d0                ENC1_HOME_IRQHandler
                0x00000000000006d4                ENC1_WDG_IRQHandler
                0x00000000000006d8                ENC1_IDX_IRQHandler
                0x00000000000006dc                Reserved126_IRQHandler
                0x00000000000006e0                Reserved127_IRQHandler
                0x00000000000006e4                ELS_ERR_IRQHandler
                0x00000000000006e8                PKC_ERR_IRQHandler
                0x00000000000006ec                Reserved130_IRQHandler
                0x00000000000006f0                Reserved131_IRQHandler
                0x00000000000006f4                Reserved132_IRQHandler
                0x00000000000006f8                Reserved133_IRQHandler
                0x00000000000006fc                FLASH_IRQHandler
                0x0000000000000700                RAM_PARITY_ECC_ERR_IRQHandler
 .text          0x00000000000008f8       0xa0 CMakeFiles/freertos_hello.elf.dir/project/sdk/devices/LPC5536/utilities/fsl_memcpy.S.obj
                0x00000000000008f8                memcpy
 .text          0x0000000000000998       0x10 /opt/arm/arm-gnu-toolchain-12.2.rel1-x86_64-arm-none-eabi/bin/../lib/gcc/arm-none-eabi/12.2.1/../../../../arm-none-eabi/lib/thumb/v8-m.main+fp/hard/libc_nano.a(libc_a-strlen.o)
                0x0000000000000998                strlen
 *(.text*)
 .text.deregister_tm_clones
                0x00000000000009a8       0x1c /opt/arm/arm-gnu-toolchain-12.2.rel1-x86_64-arm-none-eabi/bin/../lib/gcc/arm-none-eabi/12.2.1/thumb/v8-m.main+fp/hard/crtbegin.o
 .text.register_tm_clones
                0x00000000000009c4       0x28 /opt/arm/arm-gnu-toolchain-12.2.rel1-x86_64-arm-none-eabi/bin/../lib/gcc/arm-none-eabi/12.2.1/thumb/v8-m.main+fp/hard/crtbegin.o
 .text.__do_global_dtors_aux
                0x00000000000009ec       0x28 /opt/arm/arm-gnu-toolchain-12.2.rel1-x86_64-arm-none-eabi/bin/../lib/gcc/arm-none-eabi/12.2.1/thumb/v8-m.main+fp/hard/crtbegin.o
 .text.frame_dummy
                0x0000000000000a14       0x24 /opt/arm/arm-gnu-toolchain-12.2.rel1-x86_64-arm-none-eabi/bin/../lib/gcc/arm-none-eabi/12.2.1/thumb/v8-m.main+fp/hard/crtbegin.o
 .text.GPIO_PortToggle
                0x0000000000000a38       0x26 CMakeFiles/freertos_hello.elf.dir/project/src/freertos_hello.c.obj
 *fill*         0x0000000000000a5e        0x2 
 .text.main     0x0000000000000a60       0x68 CMakeFiles/freertos_hello.elf.dir/project/src/freertos_hello.c.obj
                0x0000000000000a60                main
 .text.hello_task
                0x0000000000000ac8       0x2c CMakeFiles/freertos_hello.elf.dir/project/src/freertos_hello.c.obj
 .text.POWER_DisablePD
                0x0000000000000af4       0x40 CMakeFiles/freertos_hello.elf.dir/project/board/clock_config.c.obj
 .text.BOARD_InitBootClocks
                0x0000000000000b34        0xc CMakeFiles/freertos_hello.elf.dir/project/board/clock_config.c.obj
                0x0000000000000b34                BOARD_InitBootClocks
 .text.BOARD_BootClockRUN
                0x0000000000000b40       0x4c CMakeFiles/freertos_hello.elf.dir/project/board/clock_config.c.obj
                0x0000000000000b40                BOARD_BootClockRUN
 .text.CLOCK_EnableClock
                0x0000000000000b8c       0x8c CMakeFiles/freertos_hello.elf.dir/project/board/pin_mux.c.obj
 .text.BOARD_InitBootPins
                0x0000000000000c18        0xc CMakeFiles/freertos_hello.elf.dir/project/board/pin_mux.c.obj
                0x0000000000000c18                BOARD_InitBootPins
 .text.BOARD_InitPins
                0x0000000000000c24       0x50 CMakeFiles/freertos_hello.elf.dir/project/board/pin_mux.c.obj
                0x0000000000000c24                BOARD_InitPins
 .text.SerialManager_StartWriting
                0x0000000000000c74       0x38 CMakeFiles/freertos_hello.elf.dir/project/sdk/components/serial_manager/fsl_component_serial_manager.c.obj
 .text.SerialManager_Write
                0x0000000000000cac       0x44 CMakeFiles/freertos_hello.elf.dir/project/sdk/components/serial_manager/fsl_component_serial_manager.c.obj
 .text.SerialManager_WriteBlocking
                0x0000000000000cf0       0x20 CMakeFiles/freertos_hello.elf.dir/project/sdk/components/serial_manager/fsl_component_serial_manager.c.obj
                0x0000000000000cf0                SerialManager_WriteBlocking
 .text.Serial_UartWrite
                0x0000000000000d10       0x38 CMakeFiles/freertos_hello.elf.dir/project/sdk/components/serial_manager/fsl_component_serial_port_uart.c.obj
                0x0000000000000d10                Serial_UartWrite
 .text.HAL_UartSendBlocking
                0x0000000000000d48       0x84 CMakeFiles/freertos_hello.elf.dir/project/sdk/components/uart/fsl_adapter_usart.c.obj
                0x0000000000000d48                HAL_UartSendBlocking
 .text.SystemInit
                0x0000000000000dcc       0x78 CMakeFiles/freertos_hello.elf.dir/project/sdk/devices/LPC5536/system_LPC5536.c.obj
                0x0000000000000dcc                SystemInit
 .text.SystemInitHook
                0x0000000000000e44        0xe CMakeFiles/freertos_hello.elf.dir/project/sdk/devices/LPC5536/system_LPC5536.c.obj
                0x0000000000000e44                SystemInitHook
 *fill*         0x0000000000000e52        0x2 
 .text.POWER_DisablePD
                0x0000000000000e54       0x40 CMakeFiles/freertos_hello.elf.dir/project/sdk/devices/LPC5536/drivers/fsl_clock.c.obj
 .text.CLOCK_AttachClk
                0x0000000000000e94       0xbc CMakeFiles/freertos_hello.elf.dir/project/sdk/devices/LPC5536/drivers/fsl_clock.c.obj
                0x0000000000000e94                CLOCK_AttachClk
 .text.CLOCK_SetClkDiv
                0x0000000000000f50       0x80 CMakeFiles/freertos_hello.elf.dir/project/sdk/devices/LPC5536/drivers/fsl_clock.c.obj
                0x0000000000000f50                CLOCK_SetClkDiv
 .text.CLOCK_SetupFROClocking
                0x0000000000000fd0       0x78 CMakeFiles/freertos_hello.elf.dir/project/sdk/devices/LPC5536/drivers/fsl_clock.c.obj
                0x0000000000000fd0                CLOCK_SetupFROClocking
 .text.CLOCK_SetFLASHAccessCyclesForFreq
                0x0000000000001048       0xd8 CMakeFiles/freertos_hello.elf.dir/project/sdk/devices/LPC5536/drivers/fsl_clock.c.obj
                0x0000000000001048                CLOCK_SetFLASHAccessCyclesForFreq
 .text.CLOCK_FroHfTrim
                0x0000000000001120       0x38 CMakeFiles/freertos_hello.elf.dir/project/sdk/devices/LPC5536/drivers/fsl_clock.c.obj
                0x0000000000001120                CLOCK_FroHfTrim
 .text.FLEXCOMM_GetInstance
                0x0000000000001158       0x5c CMakeFiles/freertos_hello.elf.dir/project/sdk/devices/LPC5536/drivers/fsl_flexcomm.c.obj
                0x0000000000001158                FLEXCOMM_GetInstance
 .text.FLEXCOMM0_DriverIRQHandler
                0x00000000000011b4       0x68 CMakeFiles/freertos_hello.elf.dir/project/sdk/devices/LPC5536/drivers/fsl_flexcomm.c.obj
                0x00000000000011b4                FLEXCOMM0_DriverIRQHandler
 .text.FLEXCOMM1_DriverIRQHandler
                0x000000000000121c       0x68 CMakeFiles/freertos_hello.elf.dir/project/sdk/devices/LPC5536/drivers/fsl_flexcomm.c.obj
                0x000000000000121c                FLEXCOMM1_DriverIRQHandler
 .text.FLEXCOMM2_DriverIRQHandler
                0x0000000000001284       0x68 CMakeFiles/freertos_hello.elf.dir/project/sdk/devices/LPC5536/drivers/fsl_flexcomm.c.obj
                0x0000000000001284                FLEXCOMM2_DriverIRQHandler
 .text.FLEXCOMM3_DriverIRQHandler
                0x00000000000012ec       0x68 CMakeFiles/freertos_hello.elf.dir/project/sdk/devices/LPC5536/drivers/fsl_flexcomm.c.obj
                0x00000000000012ec                FLEXCOMM3_DriverIRQHandler
 .text.FLEXCOMM4_DriverIRQHandler
                0x0000000000001354       0x68 CMakeFiles/freertos_hello.elf.dir/project/sdk/devices/LPC5536/drivers/fsl_flexcomm.c.obj
                0x0000000000001354                FLEXCOMM4_DriverIRQHandler
 .text.FLEXCOMM5_DriverIRQHandler
                0x00000000000013bc       0x68 CMakeFiles/freertos_hello.elf.dir/project/sdk/devices/LPC5536/drivers/fsl_flexcomm.c.obj
                0x00000000000013bc                FLEXCOMM5_DriverIRQHandler
 .text.FLEXCOMM6_DriverIRQHandler
                0x0000000000001424       0x6c CMakeFiles/freertos_hello.elf.dir/project/sdk/devices/LPC5536/drivers/fsl_flexcomm.c.obj
                0x0000000000001424                FLEXCOMM6_DriverIRQHandler
 .text.FLEXCOMM7_DriverIRQHandler
                0x0000000000001490       0x6c CMakeFiles/freertos_hello.elf.dir/project/sdk/devices/LPC5536/drivers/fsl_flexcomm.c.obj
                0x0000000000001490                FLEXCOMM7_DriverIRQHandler
 .text.FLEXCOMM8_DriverIRQHandler
                0x00000000000014fc       0x6c CMakeFiles/freertos_hello.elf.dir/project/sdk/devices/LPC5536/drivers/fsl_flexcomm.c.obj
                0x00000000000014fc                FLEXCOMM8_DriverIRQHandler
 .text.USART_WriteBlocking
                0x0000000000001568       0x9c CMakeFiles/freertos_hello.elf.dir/project/sdk/devices/LPC5536/drivers/fsl_usart.c.obj
                0x0000000000001568                USART_WriteBlocking
 .text.CLOCK_EnableClock
                0x0000000000001604       0x8c CMakeFiles/freertos_hello.elf.dir/project/sdk/devices/LPC5536/drivers/fsl_gpio.c.obj
 .text.GPIO_EnablePortClock
                0x0000000000001690       0x44 CMakeFiles/freertos_hello.elf.dir/project/sdk/devices/LPC5536/drivers/fsl_gpio.c.obj
 .text.GPIO_PinInit
                0x00000000000016d4       0xa4 CMakeFiles/freertos_hello.elf.dir/project/sdk/devices/LPC5536/drivers/fsl_gpio.c.obj
                0x00000000000016d4                GPIO_PinInit
 .text.Chip_GetVersion
                0x0000000000001778       0x36 CMakeFiles/freertos_hello.elf.dir/project/sdk/devices/LPC5536/drivers/fsl_power.c.obj
 *fill*         0x00000000000017ae        0x2 
 .text.POWER_PowerInit
                0x00000000000017b0       0x94 CMakeFiles/freertos_hello.elf.dir/project/sdk/devices/LPC5536/drivers/fsl_power.c.obj
                0x00000000000017b0                POWER_PowerInit
 .text.POWER_SetVoltageForFreq
                0x0000000000001844       0xd4 CMakeFiles/freertos_hello.elf.dir/project/sdk/devices/LPC5536/drivers/fsl_power.c.obj
                0x0000000000001844                POWER_SetVoltageForFreq
 .text.POWER_SetSystemPowerProfile
                0x0000000000001918      0x108 CMakeFiles/freertos_hello.elf.dir/project/sdk/devices/LPC5536/drivers/fsl_power.c.obj
 .text.POWER_SetVoltageForProcess
                0x0000000000001a20       0xaa CMakeFiles/freertos_hello.elf.dir/project/sdk/devices/LPC5536/drivers/fsl_power.c.obj
 *fill*         0x0000000000001aca        0x2 
 .text.POWER_GetPartProcessCorner
                0x0000000000001acc       0x9c CMakeFiles/freertos_hello.elf.dir/project/sdk/devices/LPC5536/drivers/fsl_power.c.obj
 .text.POWER_SetSystemVoltage
                0x0000000000001b68      0x1fc CMakeFiles/freertos_hello.elf.dir/project/sdk/devices/LPC5536/drivers/fsl_power.c.obj
 .text.vListInitialise
                0x0000000000001d64       0x40 CMakeFiles/freertos_hello.elf.dir/project/sdk/rtos/freertos/freertos-kernel/list.c.obj
                0x0000000000001d64                vListInitialise
 .text.vListInitialiseItem
                0x0000000000001da4       0x1a CMakeFiles/freertos_hello.elf.dir/project/sdk/rtos/freertos/freertos-kernel/list.c.obj
                0x0000000000001da4                vListInitialiseItem
 .text.vListInsert
                0x0000000000001dbe       0x72 CMakeFiles/freertos_hello.elf.dir/project/sdk/rtos/freertos/freertos-kernel/list.c.obj
                0x0000000000001dbe                vListInsert
 .text.uxListRemove
                0x0000000000001e30       0x54 CMakeFiles/freertos_hello.elf.dir/project/sdk/rtos/freertos/freertos-kernel/list.c.obj
                0x0000000000001e30                uxListRemove
 .text.xQueueGenericReset
                0x0000000000001e84       0xf2 CMakeFiles/freertos_hello.elf.dir/project/sdk/rtos/freertos/freertos-kernel/queue.c.obj
                0x0000000000001e84                xQueueGenericReset
 .text.xQueueGenericCreate
                0x0000000000001f76       0x8e CMakeFiles/freertos_hello.elf.dir/project/sdk/rtos/freertos/freertos-kernel/queue.c.obj
                0x0000000000001f76                xQueueGenericCreate
 .text.prvInitialiseNewQueue
                0x0000000000002004       0x46 CMakeFiles/freertos_hello.elf.dir/project/sdk/rtos/freertos/freertos-kernel/queue.c.obj
 .text.xQueueReceive
                0x000000000000204a      0x178 CMakeFiles/freertos_hello.elf.dir/project/sdk/rtos/freertos/freertos-kernel/queue.c.obj
                0x000000000000204a                xQueueReceive
 .text.prvCopyDataFromQueue
                0x00000000000021c2       0x4c CMakeFiles/freertos_hello.elf.dir/project/sdk/rtos/freertos/freertos-kernel/queue.c.obj
 .text.prvUnlockQueue
                0x000000000000220e       0xa4 CMakeFiles/freertos_hello.elf.dir/project/sdk/rtos/freertos/freertos-kernel/queue.c.obj
 .text.prvIsQueueEmpty
                0x00000000000022b2       0x2c CMakeFiles/freertos_hello.elf.dir/project/sdk/rtos/freertos/freertos-kernel/queue.c.obj
 *fill*         0x00000000000022de        0x2 
 .text.vQueueAddToRegistry
                0x00000000000022e0       0x8c CMakeFiles/freertos_hello.elf.dir/project/sdk/rtos/freertos/freertos-kernel/queue.c.obj
                0x00000000000022e0                vQueueAddToRegistry
 .text.vQueueWaitForMessageRestricted
                0x000000000000236c       0x68 CMakeFiles/freertos_hello.elf.dir/project/sdk/rtos/freertos/freertos-kernel/queue.c.obj
                0x000000000000236c                vQueueWaitForMessageRestricted
 .text.xTaskCreate
                0x00000000000023d4       0x8c CMakeFiles/freertos_hello.elf.dir/project/sdk/rtos/freertos/freertos-kernel/tasks.c.obj
                0x00000000000023d4                xTaskCreate
 .text.prvInitialiseNewTask
                0x0000000000002460      0x10a CMakeFiles/freertos_hello.elf.dir/project/sdk/rtos/freertos/freertos-kernel/tasks.c.obj
 *fill*         0x000000000000256a        0x2 
 .text.prvAddNewTaskToReadyList
                0x000000000000256c      0x120 CMakeFiles/freertos_hello.elf.dir/project/sdk/rtos/freertos/freertos-kernel/tasks.c.obj
 .text.vTaskDelay
                0x000000000000268c       0x4c CMakeFiles/freertos_hello.elf.dir/project/sdk/rtos/freertos/freertos-kernel/tasks.c.obj
                0x000000000000268c                vTaskDelay
 .text.vTaskStartScheduler
                0x00000000000026d8       0x84 CMakeFiles/freertos_hello.elf.dir/project/sdk/rtos/freertos/freertos-kernel/tasks.c.obj
                0x00000000000026d8                vTaskStartScheduler
 .text.vTaskSuspendAll
                0x000000000000275c       0x1c CMakeFiles/freertos_hello.elf.dir/project/sdk/rtos/freertos/freertos-kernel/tasks.c.obj
                0x000000000000275c                vTaskSuspendAll
 .text.xTaskResumeAll
                0x0000000000002778      0x1dc CMakeFiles/freertos_hello.elf.dir/project/sdk/rtos/freertos/freertos-kernel/tasks.c.obj
                0x0000000000002778                xTaskResumeAll
 .text.xTaskGetTickCount
                0x0000000000002954       0x20 CMakeFiles/freertos_hello.elf.dir/project/sdk/rtos/freertos/freertos-kernel/tasks.c.obj
                0x0000000000002954                xTaskGetTickCount
 .text.xTaskIncrementTick
                0x0000000000002974      0x204 CMakeFiles/freertos_hello.elf.dir/project/sdk/rtos/freertos/freertos-kernel/tasks.c.obj
                0x0000000000002974                xTaskIncrementTick
 .text.vTaskSwitchContext
                0x0000000000002b78       0xa8 CMakeFiles/freertos_hello.elf.dir/project/sdk/rtos/freertos/freertos-kernel/tasks.c.obj
                0x0000000000002b78                vTaskSwitchContext
 .text.vTaskPlaceOnEventList
                0x0000000000002c20       0x3c CMakeFiles/freertos_hello.elf.dir/project/sdk/rtos/freertos/freertos-kernel/tasks.c.obj
                0x0000000000002c20                vTaskPlaceOnEventList
 .text.vTaskPlaceOnEventListRestricted
                0x0000000000002c5c       0x7c CMakeFiles/freertos_hello.elf.dir/project/sdk/rtos/freertos/freertos-kernel/tasks.c.obj
                0x0000000000002c5c                vTaskPlaceOnEventListRestricted
 .text.xTaskRemoveFromEventList
                0x0000000000002cd8      0x19c CMakeFiles/freertos_hello.elf.dir/project/sdk/rtos/freertos/freertos-kernel/tasks.c.obj
                0x0000000000002cd8                xTaskRemoveFromEventList
 .text.vTaskInternalSetTimeOutState
                0x0000000000002e74       0x2c CMakeFiles/freertos_hello.elf.dir/project/sdk/rtos/freertos/freertos-kernel/tasks.c.obj
                0x0000000000002e74                vTaskInternalSetTimeOutState
 .text.xTaskCheckForTimeOut
                0x0000000000002ea0       0xb0 CMakeFiles/freertos_hello.elf.dir/project/sdk/rtos/freertos/freertos-kernel/tasks.c.obj
                0x0000000000002ea0                xTaskCheckForTimeOut
 .text.vTaskMissedYield
                0x0000000000002f50       0x18 CMakeFiles/freertos_hello.elf.dir/project/sdk/rtos/freertos/freertos-kernel/tasks.c.obj
                0x0000000000002f50                vTaskMissedYield
 .text.prvIdleTask
                0x0000000000002f68       0x20 CMakeFiles/freertos_hello.elf.dir/project/sdk/rtos/freertos/freertos-kernel/tasks.c.obj
 .text.prvInitialiseTaskLists
                0x0000000000002f88       0x80 CMakeFiles/freertos_hello.elf.dir/project/sdk/rtos/freertos/freertos-kernel/tasks.c.obj
 .text.prvCheckTasksWaitingTermination
                0x0000000000003008       0x5c CMakeFiles/freertos_hello.elf.dir/project/sdk/rtos/freertos/freertos-kernel/tasks.c.obj
 .text.prvDeleteTCB
                0x0000000000003064       0x20 CMakeFiles/freertos_hello.elf.dir/project/sdk/rtos/freertos/freertos-kernel/tasks.c.obj
 .text.prvResetNextTaskUnblockTime
                0x0000000000003084       0x38 CMakeFiles/freertos_hello.elf.dir/project/sdk/rtos/freertos/freertos-kernel/tasks.c.obj
 .text.xTaskGetSchedulerState
                0x00000000000030bc       0x3c CMakeFiles/freertos_hello.elf.dir/project/sdk/rtos/freertos/freertos-kernel/tasks.c.obj
                0x00000000000030bc                xTaskGetSchedulerState
 .text.prvAddCurrentTaskToDelayedList
                0x00000000000030f8       0xdc CMakeFiles/freertos_hello.elf.dir/project/sdk/rtos/freertos/freertos-kernel/tasks.c.obj
 .text.xTimerCreateTimerTask
                0x00000000000031d4       0x54 CMakeFiles/freertos_hello.elf.dir/project/sdk/rtos/freertos/freertos-kernel/timers.c.obj
                0x00000000000031d4                xTimerCreateTimerTask
 .text.prvReloadTimer
                0x0000000000003228       0x42 CMakeFiles/freertos_hello.elf.dir/project/sdk/rtos/freertos/freertos-kernel/timers.c.obj
 *fill*         0x000000000000326a        0x2 
 .text.prvProcessExpiredTimer
                0x000000000000326c       0x60 CMakeFiles/freertos_hello.elf.dir/project/sdk/rtos/freertos/freertos-kernel/timers.c.obj
 .text.prvTimerTask
                0x00000000000032cc       0x26 CMakeFiles/freertos_hello.elf.dir/project/sdk/rtos/freertos/freertos-kernel/timers.c.obj
 *fill*         0x00000000000032f2        0x2 
 .text.prvProcessTimerOrBlockTask
                0x00000000000032f4       0x8c CMakeFiles/freertos_hello.elf.dir/project/sdk/rtos/freertos/freertos-kernel/timers.c.obj
 .text.prvGetNextExpireTime
                0x0000000000003380       0x48 CMakeFiles/freertos_hello.elf.dir/project/sdk/rtos/freertos/freertos-kernel/timers.c.obj
 .text.prvSampleTimeNow
                0x00000000000033c8       0x40 CMakeFiles/freertos_hello.elf.dir/project/sdk/rtos/freertos/freertos-kernel/timers.c.obj
 .text.prvInsertTimerInActiveList
                0x0000000000003408       0x84 CMakeFiles/freertos_hello.elf.dir/project/sdk/rtos/freertos/freertos-kernel/timers.c.obj
 .text.prvProcessReceivedCommands
                0x000000000000348c      0x19c CMakeFiles/freertos_hello.elf.dir/project/sdk/rtos/freertos/freertos-kernel/timers.c.obj
 .text.prvSwitchTimerLists
                0x0000000000003628       0x4c CMakeFiles/freertos_hello.elf.dir/project/sdk/rtos/freertos/freertos-kernel/timers.c.obj
 .text.prvCheckForValidListAndQueue
                0x0000000000003674       0x6c CMakeFiles/freertos_hello.elf.dir/project/sdk/rtos/freertos/freertos-kernel/timers.c.obj
 .text.vPortSetupTimerInterrupt
                0x00000000000036e0       0x48 CMakeFiles/freertos_hello.elf.dir/project/sdk/rtos/freertos/freertos-kernel/portable/GCC/ARM_CM33_NTZ/non_secure/port.c.obj
                0x00000000000036e0                vPortSetupTimerInterrupt
 .text.prvTaskExitError
                0x0000000000003728       0x38 CMakeFiles/freertos_hello.elf.dir/project/sdk/rtos/freertos/freertos-kernel/portable/GCC/ARM_CM33_NTZ/non_secure/port.c.obj
 .text.prvSetupFPU
                0x0000000000003760       0x30 CMakeFiles/freertos_hello.elf.dir/project/sdk/rtos/freertos/freertos-kernel/portable/GCC/ARM_CM33_NTZ/non_secure/port.c.obj
 .text.vPortYield
                0x0000000000003790       0x24 CMakeFiles/freertos_hello.elf.dir/project/sdk/rtos/freertos/freertos-kernel/portable/GCC/ARM_CM33_NTZ/non_secure/port.c.obj
                0x0000000000003790                vPortYield
 .text.vPortEnterCritical
                0x00000000000037b4       0x24 CMakeFiles/freertos_hello.elf.dir/project/sdk/rtos/freertos/freertos-kernel/portable/GCC/ARM_CM33_NTZ/non_secure/port.c.obj
                0x00000000000037b4                vPortEnterCritical
 .text.vPortExitCritical
                0x00000000000037d8       0x34 CMakeFiles/freertos_hello.elf.dir/project/sdk/rtos/freertos/freertos-kernel/portable/GCC/ARM_CM33_NTZ/non_secure/port.c.obj
                0x00000000000037d8                vPortExitCritical
 .text.SysTick_Handler
                0x000000000000380c       0x30 CMakeFiles/freertos_hello.elf.dir/project/sdk/rtos/freertos/freertos-kernel/portable/GCC/ARM_CM33_NTZ/non_secure/port.c.obj
                0x000000000000380c                SysTick_Handler
 .text.vPortSVCHandler_C
                0x000000000000383c       0x36 CMakeFiles/freertos_hello.elf.dir/project/sdk/rtos/freertos/freertos-kernel/portable/GCC/ARM_CM33_NTZ/non_secure/port.c.obj
                0x000000000000383c                vPortSVCHandler_C
 *fill*         0x0000000000003872        0x2 
 .text.pxPortInitialiseStack
                0x0000000000003874      0x114 CMakeFiles/freertos_hello.elf.dir/project/sdk/rtos/freertos/freertos-kernel/portable/GCC/ARM_CM33_NTZ/non_secure/port.c.obj
                0x0000000000003874                pxPortInitialiseStack
 .text.xPortStartScheduler
                0x0000000000003988       0x40 CMakeFiles/freertos_hello.elf.dir/project/sdk/rtos/freertos/freertos-kernel/portable/GCC/ARM_CM33_NTZ/non_secure/port.c.obj
                0x0000000000003988                xPortStartScheduler
 *fill*         0x00000000000039c8        0x8 
 .text.vRestoreContextOfFirstTask
                0x00000000000039d0       0x38 CMakeFiles/freertos_hello.elf.dir/project/sdk/rtos/freertos/freertos-kernel/portable/GCC/ARM_CM33_NTZ/non_secure/portasm.c.obj
                0x00000000000039d0                vRestoreContextOfFirstTask
 *fill*         0x0000000000003a08        0x8 
 .text.vStartFirstTask
                0x0000000000003a10       0x28 CMakeFiles/freertos_hello.elf.dir/project/sdk/rtos/freertos/freertos-kernel/portable/GCC/ARM_CM33_NTZ/non_secure/portasm.c.obj
                0x0000000000003a10                vStartFirstTask
 .text.ulSetInterruptMask
                0x0000000000003a38       0x1a CMakeFiles/freertos_hello.elf.dir/project/sdk/rtos/freertos/freertos-kernel/portable/GCC/ARM_CM33_NTZ/non_secure/portasm.c.obj
                0x0000000000003a38                ulSetInterruptMask
 .text.vClearInterruptMask
                0x0000000000003a52       0x10 CMakeFiles/freertos_hello.elf.dir/project/sdk/rtos/freertos/freertos-kernel/portable/GCC/ARM_CM33_NTZ/non_secure/portasm.c.obj
                0x0000000000003a52                vClearInterruptMask
 *fill*         0x0000000000003a62        0xe 
 .text.PendSV_Handler
                0x0000000000003a70       0x68 CMakeFiles/freertos_hello.elf.dir/project/sdk/rtos/freertos/freertos-kernel/portable/GCC/ARM_CM33_NTZ/non_secure/portasm.c.obj
                0x0000000000003a70                PendSV_Handler
 *fill*         0x0000000000003ad8        0x8 
 .text.SVC_Handler
                0x0000000000003ae0       0x28 CMakeFiles/freertos_hello.elf.dir/project/sdk/rtos/freertos/freertos-kernel/portable/GCC/ARM_CM33_NTZ/non_secure/portasm.c.obj
                0x0000000000003ae0                SVC_Handler
 .text.pvPortMalloc
                0x0000000000003b08      0x158 CMakeFiles/freertos_hello.elf.dir/project/sdk/rtos/freertos/freertos-kernel/portable/MemMang/heap_4.c.obj
                0x0000000000003b08                pvPortMalloc
 .text.vPortFree
                0x0000000000003c60       0x9c CMakeFiles/freertos_hello.elf.dir/project/sdk/rtos/freertos/freertos-kernel/portable/MemMang/heap_4.c.obj
                0x0000000000003c60                vPortFree
 .text.prvHeapInit
                0x0000000000003cfc       0xb8 CMakeFiles/freertos_hello.elf.dir/project/sdk/rtos/freertos/freertos-kernel/portable/MemMang/heap_4.c.obj
 .text.prvInsertBlockIntoFreeList
                0x0000000000003db4       0xb4 CMakeFiles/freertos_hello.elf.dir/project/sdk/rtos/freertos/freertos-kernel/portable/MemMang/heap_4.c.obj
 .text.__assert_func
                0x0000000000003e68       0x28 CMakeFiles/freertos_hello.elf.dir/project/sdk/devices/LPC5536/utilities/fsl_assert.c.obj
                0x0000000000003e68                __assert_func
 .text.PrintGetWidth
                0x0000000000003e90       0x6a CMakeFiles/freertos_hello.elf.dir/project/sdk/devices/LPC5536/utilities/str/fsl_str.c.obj
 .text.PrintGetPrecision
                0x0000000000003efa       0x8c CMakeFiles/freertos_hello.elf.dir/project/sdk/devices/LPC5536/utilities/str/fsl_str.c.obj
 .text.PrintIsobpu
                0x0000000000003f86       0x38 CMakeFiles/freertos_hello.elf.dir/project/sdk/devices/LPC5536/utilities/str/fsl_str.c.obj
 .text.PrintIsdi
                0x0000000000003fbe       0x2c CMakeFiles/freertos_hello.elf.dir/project/sdk/devices/LPC5536/utilities/str/fsl_str.c.obj
 .text.PrintOutputdifFobpu
                0x0000000000003fea       0x44 CMakeFiles/freertos_hello.elf.dir/project/sdk/devices/LPC5536/utilities/str/fsl_str.c.obj
 .text.PrintOutputxX
                0x000000000000402e       0x44 CMakeFiles/freertos_hello.elf.dir/project/sdk/devices/LPC5536/utilities/str/fsl_str.c.obj
 .text.PrintIsfF
                0x0000000000004072       0x2c CMakeFiles/freertos_hello.elf.dir/project/sdk/devices/LPC5536/utilities/str/fsl_str.c.obj
 .text.PrintIsxX
                0x000000000000409e       0x2c CMakeFiles/freertos_hello.elf.dir/project/sdk/devices/LPC5536/utilities/str/fsl_str.c.obj
 .text.PrintFilterLengthFlag
                0x00000000000040ca       0x3e CMakeFiles/freertos_hello.elf.dir/project/sdk/devices/LPC5536/utilities/str/fsl_str.c.obj
 .text.PrintGetRadixFromobpu
                0x0000000000004108       0x40 CMakeFiles/freertos_hello.elf.dir/project/sdk/devices/LPC5536/utilities/str/fsl_str.c.obj
 .text.ConvertRadixNumToString
                0x0000000000004148       0xc2 CMakeFiles/freertos_hello.elf.dir/project/sdk/devices/LPC5536/utilities/str/fsl_str.c.obj
 .text.StrFormatPrintf
                0x000000000000420a      0x2ac CMakeFiles/freertos_hello.elf.dir/project/sdk/devices/LPC5536/utilities/str/fsl_str.c.obj
                0x000000000000420a                StrFormatPrintf
 *fill*         0x00000000000044b6        0x2 
 .text.DbgConsole_SendDataReliable
                0x00000000000044b8       0x54 CMakeFiles/freertos_hello.elf.dir/project/sdk/devices/LPC5536/utilities/debug_console/fsl_debug_console.c.obj
                0x00000000000044b8                DbgConsole_SendDataReliable
 .text.DbgConsole_PrintCallback
                0x000000000000450c       0x66 CMakeFiles/freertos_hello.elf.dir/project/sdk/devices/LPC5536/utilities/debug_console/fsl_debug_console.c.obj
 .text.DbgConsole_Printf
                0x0000000000004572       0x2c CMakeFiles/freertos_hello.elf.dir/project/sdk/devices/LPC5536/utilities/debug_console/fsl_debug_console.c.obj
                0x0000000000004572                DbgConsole_Printf
 *fill*         0x000000000000459e        0x2 
 .text.DbgConsole_Vprintf
                0x00000000000045a0       0x6c CMakeFiles/freertos_hello.elf.dir/project/sdk/devices/LPC5536/utilities/debug_console/fsl_debug_console.c.obj
                0x00000000000045a0                DbgConsole_Vprintf
 .text.exit     0x000000000000460c       0x24 /opt/arm/arm-gnu-toolchain-12.2.rel1-x86_64-arm-none-eabi/bin/../lib/gcc/arm-none-eabi/12.2.1/../../../../arm-none-eabi/lib/thumb/v8-m.main+fp/hard/libc_nano.a(libc_a-exit.o)
                0x000000000000460c                exit
 .text.__libc_init_array
                0x0000000000004630       0x48 /opt/arm/arm-gnu-toolchain-12.2.rel1-x86_64-arm-none-eabi/bin/../lib/gcc/arm-none-eabi/12.2.1/../../../../arm-none-eabi/lib/thumb/v8-m.main+fp/hard/libc_nano.a(libc_a-init.o)
                0x0000000000004630                __libc_init_array
 .text.memset   0x0000000000004678       0x10 /opt/arm/arm-gnu-toolchain-12.2.rel1-x86_64-arm-none-eabi/bin/../lib/gcc/arm-none-eabi/12.2.1/../../../../arm-none-eabi/lib/thumb/v8-m.main+fp/hard/libc_nano.a(libc_a-memset.o)
                0x0000000000004678                memset
 .text._exit    0x0000000000004688        0x2 /opt/arm/arm-gnu-toolchain-12.2.rel1-x86_64-arm-none-eabi/bin/../lib/gcc/arm-none-eabi/12.2.1/../../../../arm-none-eabi/lib/thumb/v8-m.main+fp/hard/libcr_newlib_nohost.a(_exit.o)
                0x0000000000004688                _exit
 *(.rodata)
 *fill*         0x000000000000468a        0x2 
 .rodata        0x000000000000468c       0x37 CMakeFiles/freertos_hello.elf.dir/project/src/freertos_hello.c.obj
 *fill*         0x00000000000046c3        0x1 
 .rodata        0x00000000000046c4       0xc3 CMakeFiles/freertos_hello.elf.dir/project/sdk/components/uart/fsl_adapter_usart.c.obj
 *fill*         0x0000000000004787        0x1 
 .rodata        0x0000000000004788       0x8b CMakeFiles/freertos_hello.elf.dir/project/sdk/devices/LPC5536/drivers/fsl_flexcomm.c.obj
 *fill*         0x0000000000004813        0x1 
 .rodata        0x0000000000004814      0x257 CMakeFiles/freertos_hello.elf.dir/project/sdk/devices/LPC5536/drivers/fsl_usart.c.obj
 *fill*         0x0000000000004a6b        0x1 
 .rodata        0x0000000000004a6c       0x54 CMakeFiles/freertos_hello.elf.dir/project/sdk/devices/LPC5536/drivers/fsl_gpio.c.obj
 .rodata        0x0000000000004ac0       0x30 CMakeFiles/freertos_hello.elf.dir/project/sdk/rtos/freertos/freertos-kernel/tasks.c.obj
                0x0000000000004ad4                portArch_Name
                0x0000000000004ad8                FreeRTOSDebugConfig
 .rodata        0x0000000000004af0        0xd CMakeFiles/freertos_hello.elf.dir/project/sdk/rtos/freertos/freertos-kernel/timers.c.obj
 *fill*         0x0000000000004afd        0x3 
 .rodata        0x0000000000004b00       0x3e CMakeFiles/freertos_hello.elf.dir/project/sdk/devices/LPC5536/utilities/fsl_assert.c.obj
 *(.rodata*)
 *fill*         0x0000000000004b3e        0x2 
 .rodata.s_UsartAdapterBase
                0x0000000000004b40       0x20 CMakeFiles/freertos_hello.elf.dir/project/sdk/components/uart/fsl_adapter_usart.c.obj
 .rodata.__func__.1
                0x0000000000004b60       0x15 CMakeFiles/freertos_hello.elf.dir/project/sdk/components/uart/fsl_adapter_usart.c.obj
 *fill*         0x0000000000004b75        0x3 
 .rodata.IntervalList
                0x0000000000004b78       0x60 CMakeFiles/freertos_hello.elf.dir/project/sdk/devices/LPC5536/drivers/fsl_clock.c.obj
 .rodata.s_flexcommBaseAddrs
                0x0000000000004bd8       0x24 CMakeFiles/freertos_hello.elf.dir/project/sdk/devices/LPC5536/drivers/fsl_flexcomm.c.obj
 .rodata.__func__.9
                0x0000000000004bfc       0x15 CMakeFiles/freertos_hello.elf.dir/project/sdk/devices/LPC5536/drivers/fsl_flexcomm.c.obj
 *fill*         0x0000000000004c11        0x3 
 .rodata.__func__.8
                0x0000000000004c14       0x1b CMakeFiles/freertos_hello.elf.dir/project/sdk/devices/LPC5536/drivers/fsl_flexcomm.c.obj
 *fill*         0x0000000000004c2f        0x1 
 .rodata.__func__.7
                0x0000000000004c30       0x1b CMakeFiles/freertos_hello.elf.dir/project/sdk/devices/LPC5536/drivers/fsl_flexcomm.c.obj
 *fill*         0x0000000000004c4b        0x1 
 .rodata.__func__.6
                0x0000000000004c4c       0x1b CMakeFiles/freertos_hello.elf.dir/project/sdk/devices/LPC5536/drivers/fsl_flexcomm.c.obj
 *fill*         0x0000000000004c67        0x1 
 .rodata.__func__.5
                0x0000000000004c68       0x1b CMakeFiles/freertos_hello.elf.dir/project/sdk/devices/LPC5536/drivers/fsl_flexcomm.c.obj
 *fill*         0x0000000000004c83        0x1 
 .rodata.__func__.4
                0x0000000000004c84       0x1b CMakeFiles/freertos_hello.elf.dir/project/sdk/devices/LPC5536/drivers/fsl_flexcomm.c.obj
 *fill*         0x0000000000004c9f        0x1 
 .rodata.__func__.3
                0x0000000000004ca0       0x1b CMakeFiles/freertos_hello.elf.dir/project/sdk/devices/LPC5536/drivers/fsl_flexcomm.c.obj
 *fill*         0x0000000000004cbb        0x1 
 .rodata.__func__.2
                0x0000000000004cbc       0x1b CMakeFiles/freertos_hello.elf.dir/project/sdk/devices/LPC5536/drivers/fsl_flexcomm.c.obj
 *fill*         0x0000000000004cd7        0x1 
 .rodata.__func__.1
                0x0000000000004cd8       0x1b CMakeFiles/freertos_hello.elf.dir/project/sdk/devices/LPC5536/drivers/fsl_flexcomm.c.obj
 *fill*         0x0000000000004cf3        0x1 
 .rodata.__func__.0
                0x0000000000004cf4       0x1b CMakeFiles/freertos_hello.elf.dir/project/sdk/devices/LPC5536/drivers/fsl_flexcomm.c.obj
 *fill*         0x0000000000004d0f        0x1 
 .rodata.__func__.9
                0x0000000000004d10       0x14 CMakeFiles/freertos_hello.elf.dir/project/sdk/devices/LPC5536/drivers/fsl_usart.c.obj
 .rodata.s_gpioClockName
                0x0000000000004d24        0x8 CMakeFiles/freertos_hello.elf.dir/project/sdk/devices/LPC5536/drivers/fsl_gpio.c.obj
 .rodata.__func__.0
                0x0000000000004d2c       0x15 CMakeFiles/freertos_hello.elf.dir/project/sdk/devices/LPC5536/drivers/fsl_gpio.c.obj
 *(.glue_7)
 .glue_7        0x0000000000004d41        0x0 linker stubs
 *(.glue_7t)
 .glue_7t       0x0000000000004d41        0x0 linker stubs
 *(.eh_frame)
 *fill*         0x0000000000004d41        0x3 
 .eh_frame      0x0000000000004d44        0x0 /opt/arm/arm-gnu-toolchain-12.2.rel1-x86_64-arm-none-eabi/bin/../lib/gcc/arm-none-eabi/12.2.1/thumb/v8-m.main+fp/hard/crtbegin.o
 *(.init)
 .init          0x0000000000004d44        0x4 /opt/arm/arm-gnu-toolchain-12.2.rel1-x86_64-arm-none-eabi/bin/../lib/gcc/arm-none-eabi/12.2.1/thumb/v8-m.main+fp/hard/crti.o
                0x0000000000004d44                _init
 .init          0x0000000000004d48        0x8 /opt/arm/arm-gnu-toolchain-12.2.rel1-x86_64-arm-none-eabi/bin/../lib/gcc/arm-none-eabi/12.2.1/thumb/v8-m.main+fp/hard/crtn.o
 *(.fini)
 .fini          0x0000000000004d50        0x4 /opt/arm/arm-gnu-toolchain-12.2.rel1-x86_64-arm-none-eabi/bin/../lib/gcc/arm-none-eabi/12.2.1/thumb/v8-m.main+fp/hard/crti.o
                0x0000000000004d50                _fini
 .fini          0x0000000000004d54        0x8 /opt/arm/arm-gnu-toolchain-12.2.rel1-x86_64-arm-none-eabi/bin/../lib/gcc/arm-none-eabi/12.2.1/thumb/v8-m.main+fp/hard/crtn.o
                0x0000000000004d5c                . = ALIGN (0x4)

.vfp11_veneer   0x0000000000004d5c        0x0
 .vfp11_veneer  0x0000000000004d5c        0x0 linker stubs

.v4_bx          0x0000000000004d5c        0x0
 .v4_bx         0x0000000000004d5c        0x0 linker stubs

.iplt           0x0000000000004d5c        0x0
 .iplt          0x0000000000004d5c        0x0 /opt/arm/arm-gnu-toolchain-12.2.rel1-x86_64-arm-none-eabi/bin/../lib/gcc/arm-none-eabi/12.2.1/thumb/v8-m.main+fp/hard/crtbegin.o

.ARM.extab
 *(.ARM.extab* .gnu.linkonce.armextab.*)

.ARM            0x0000000000004d5c        0x8
                0x0000000000004d5c                __exidx_start = .
 *(.ARM.exidx*)
 .ARM.exidx     0x0000000000004d5c        0x8 /opt/arm/arm-gnu-toolchain-12.2.rel1-x86_64-arm-none-eabi/bin/../lib/gcc/arm-none-eabi/12.2.1/../../../../arm-none-eabi/lib/thumb/v8-m.main+fp/hard/crt0.o
                                         0x10 (size before relaxing)
                0x0000000000004d64                __exidx_end = .

.rel.dyn        0x0000000000004d64        0x0
 .rel.iplt      0x0000000000004d64        0x0 /opt/arm/arm-gnu-toolchain-12.2.rel1-x86_64-arm-none-eabi/bin/../lib/gcc/arm-none-eabi/12.2.1/thumb/v8-m.main+fp/hard/crtbegin.o

.ctors          0x0000000000004d64        0x0
                0x0000000000004d64                __CTOR_LIST__ = .
 *crtbegin.o(.ctors)
 *crtbegin?.o(.ctors)
 *(EXCLUDE_FILE(*crtend.o *crtend?.o) .ctors)
 *(SORT_BY_NAME(.ctors.*))
 *(.ctors)
                0x0000000000004d64                __CTOR_END__ = .

.dtors          0x0000000000004d64        0x0
                0x0000000000004d64                __DTOR_LIST__ = .
 *crtbegin.o(.dtors)
 *crtbegin?.o(.dtors)
 *(EXCLUDE_FILE(*crtend.o *crtend?.o) .dtors)
 *(SORT_BY_NAME(.dtors.*))
 *(.dtors)
                0x0000000000004d64                __DTOR_END__ = .

.preinit_array  0x0000000000004d64        0x0
                0x0000000000004d64                PROVIDE (__preinit_array_start = .)
 *(.preinit_array*)
                0x0000000000004d64                PROVIDE (__preinit_array_end = .)

.init_array     0x0000000000004d64        0x4
                0x0000000000004d64                PROVIDE (__init_array_start = .)
 *(SORT_BY_NAME(.init_array.*))
 *(.init_array*)
 .init_array    0x0000000000004d64        0x4 /opt/arm/arm-gnu-toolchain-12.2.rel1-x86_64-arm-none-eabi/bin/../lib/gcc/arm-none-eabi/12.2.1/thumb/v8-m.main+fp/hard/crtbegin.o
                0x0000000000004d68                PROVIDE (__init_array_end = .)

.fini_array     0x0000000000004d68        0x4
                [!provide]                        PROVIDE (__fini_array_start = .)
 *(SORT_BY_NAME(.fini_array.*))
 *(.fini_array*)
 .fini_array    0x0000000000004d68        0x4 /opt/arm/arm-gnu-toolchain-12.2.rel1-x86_64-arm-none-eabi/bin/../lib/gcc/arm-none-eabi/12.2.1/thumb/v8-m.main+fp/hard/crtbegin.o
                [!provide]                        PROVIDE (__fini_array_end = .)
                0x0000000000004d6c                __etext = .
                0x0000000000004d6c                __DATA_ROM = .

.data           0x0000000020000000        0xc load address 0x0000000000004d6c
                0x0000000020000000                . = ALIGN (0x4)
                0x0000000020000000                __DATA_RAM = .
                0x0000000020000000                __data_start__ = .
 *(.ramfunc*)
 *(.data)
 *(.data*)
 .data.SystemCoreClock
                0x0000000020000000        0x4 CMakeFiles/freertos_hello.elf.dir/project/sdk/devices/LPC5536/system_LPC5536.c.obj
                0x0000000020000000                SystemCoreClock
 .data.uxTopUsedPriority
                0x0000000020000004        0x4 CMakeFiles/freertos_hello.elf.dir/project/sdk/rtos/freertos/freertos-kernel/tasks.c.obj
                0x0000000020000004                uxTopUsedPriority
 .data.ulCriticalNesting
                0x0000000020000008        0x4 CMakeFiles/freertos_hello.elf.dir/project/sdk/rtos/freertos/freertos-kernel/portable/GCC/ARM_CM33_NTZ/non_secure/port.c.obj
 *(.jcr*)
                0x000000002000000c                . = ALIGN (0x4)
                0x000000002000000c                __data_end__ = .
                0x0000000000004d78                __DATA_END = (__DATA_ROM + (__data_end__ - __data_start__))
                0x000000000003d800                text_end = (ORIGIN (m_text) + LENGTH (m_text))
                0x0000000000000001                ASSERT ((__DATA_END <= text_end), region m_text overflowed with text and data)

.tm_clone_table
                0x000000002000000c        0x0 load address 0x0000000000004d78
 .tm_clone_table
                0x000000002000000c        0x0 /opt/arm/arm-gnu-toolchain-12.2.rel1-x86_64-arm-none-eabi/bin/../lib/gcc/arm-none-eabi/12.2.1/thumb/v8-m.main+fp/hard/crtbegin.o
 .tm_clone_table
                0x000000002000000c        0x0 /opt/arm/arm-gnu-toolchain-12.2.rel1-x86_64-arm-none-eabi/bin/../lib/gcc/arm-none-eabi/12.2.1/thumb/v8-m.main+fp/hard/crtend.o

.igot.plt       0x000000002000000c        0x0 load address 0x0000000000004d78
 .igot.plt      0x000000002000000c        0x0 /opt/arm/arm-gnu-toolchain-12.2.rel1-x86_64-arm-none-eabi/bin/../lib/gcc/arm-none-eabi/12.2.1/thumb/v8-m.main+fp/hard/crtbegin.o

.bss            0x000000002000000c     0x2a28 load address 0x0000000000004d78
                0x000000002000000c                . = ALIGN (0x4)
                0x000000002000000c                __START_BSS = .
                0x000000002000000c                __bss_start__ = .
 *(.bss)
 *(.bss*)
 .bss.completed.1
                0x000000002000000c        0x1 /opt/arm/arm-gnu-toolchain-12.2.rel1-x86_64-arm-none-eabi/bin/../lib/gcc/arm-none-eabi/12.2.1/thumb/v8-m.main+fp/hard/crtbegin.o
 *fill*         0x000000002000000d        0x3 
 .bss.object.0  0x0000000020000010       0x18 /opt/arm/arm-gnu-toolchain-12.2.rel1-x86_64-arm-none-eabi/bin/../lib/gcc/arm-none-eabi/12.2.1/thumb/v8-m.main+fp/hard/crtbegin.o
 .bss.s_flexcommIrqHandler
                0x0000000020000028       0x24 CMakeFiles/freertos_hello.elf.dir/project/sdk/devices/LPC5536/drivers/fsl_flexcomm.c.obj
 .bss.s_flexcommHandle
                0x000000002000004c       0x24 CMakeFiles/freertos_hello.elf.dir/project/sdk/devices/LPC5536/drivers/fsl_flexcomm.c.obj
 .bss.xQueueRegistry
                0x0000000020000070       0x40 CMakeFiles/freertos_hello.elf.dir/project/sdk/rtos/freertos/freertos-kernel/queue.c.obj
                0x0000000020000070                xQueueRegistry
 .bss.pxCurrentTCB
                0x00000000200000b0        0x4 CMakeFiles/freertos_hello.elf.dir/project/sdk/rtos/freertos/freertos-kernel/tasks.c.obj
                0x00000000200000b0                pxCurrentTCB
 .bss.pxReadyTasksLists
                0x00000000200000b4       0x64 CMakeFiles/freertos_hello.elf.dir/project/sdk/rtos/freertos/freertos-kernel/tasks.c.obj
 .bss.xDelayedTaskList1
                0x0000000020000118       0x14 CMakeFiles/freertos_hello.elf.dir/project/sdk/rtos/freertos/freertos-kernel/tasks.c.obj
 .bss.xDelayedTaskList2
                0x000000002000012c       0x14 CMakeFiles/freertos_hello.elf.dir/project/sdk/rtos/freertos/freertos-kernel/tasks.c.obj
 .bss.pxDelayedTaskList
                0x0000000020000140        0x4 CMakeFiles/freertos_hello.elf.dir/project/sdk/rtos/freertos/freertos-kernel/tasks.c.obj
 .bss.pxOverflowDelayedTaskList
                0x0000000020000144        0x4 CMakeFiles/freertos_hello.elf.dir/project/sdk/rtos/freertos/freertos-kernel/tasks.c.obj
 .bss.xPendingReadyList
                0x0000000020000148       0x14 CMakeFiles/freertos_hello.elf.dir/project/sdk/rtos/freertos/freertos-kernel/tasks.c.obj
 .bss.xTasksWaitingTermination
                0x000000002000015c       0x14 CMakeFiles/freertos_hello.elf.dir/project/sdk/rtos/freertos/freertos-kernel/tasks.c.obj
 .bss.uxDeletedTasksWaitingCleanUp
                0x0000000020000170        0x4 CMakeFiles/freertos_hello.elf.dir/project/sdk/rtos/freertos/freertos-kernel/tasks.c.obj
 .bss.xSuspendedTaskList
                0x0000000020000174       0x14 CMakeFiles/freertos_hello.elf.dir/project/sdk/rtos/freertos/freertos-kernel/tasks.c.obj
 .bss.uxCurrentNumberOfTasks
                0x0000000020000188        0x4 CMakeFiles/freertos_hello.elf.dir/project/sdk/rtos/freertos/freertos-kernel/tasks.c.obj
 .bss.xTickCount
                0x000000002000018c        0x4 CMakeFiles/freertos_hello.elf.dir/project/sdk/rtos/freertos/freertos-kernel/tasks.c.obj
 .bss.uxTopReadyPriority
                0x0000000020000190        0x4 CMakeFiles/freertos_hello.elf.dir/project/sdk/rtos/freertos/freertos-kernel/tasks.c.obj
 .bss.xSchedulerRunning
                0x0000000020000194        0x4 CMakeFiles/freertos_hello.elf.dir/project/sdk/rtos/freertos/freertos-kernel/tasks.c.obj
 .bss.xPendedTicks
                0x0000000020000198        0x4 CMakeFiles/freertos_hello.elf.dir/project/sdk/rtos/freertos/freertos-kernel/tasks.c.obj
 .bss.xYieldPending
                0x000000002000019c        0x4 CMakeFiles/freertos_hello.elf.dir/project/sdk/rtos/freertos/freertos-kernel/tasks.c.obj
 .bss.xNumOfOverflows
                0x00000000200001a0        0x4 CMakeFiles/freertos_hello.elf.dir/project/sdk/rtos/freertos/freertos-kernel/tasks.c.obj
 .bss.uxTaskNumber
                0x00000000200001a4        0x4 CMakeFiles/freertos_hello.elf.dir/project/sdk/rtos/freertos/freertos-kernel/tasks.c.obj
 .bss.xNextTaskUnblockTime
                0x00000000200001a8        0x4 CMakeFiles/freertos_hello.elf.dir/project/sdk/rtos/freertos/freertos-kernel/tasks.c.obj
 .bss.xIdleTaskHandle
                0x00000000200001ac        0x4 CMakeFiles/freertos_hello.elf.dir/project/sdk/rtos/freertos/freertos-kernel/tasks.c.obj
 .bss.uxSchedulerSuspended
                0x00000000200001b0        0x4 CMakeFiles/freertos_hello.elf.dir/project/sdk/rtos/freertos/freertos-kernel/tasks.c.obj
 .bss.xActiveTimerList1
                0x00000000200001b4       0x14 CMakeFiles/freertos_hello.elf.dir/project/sdk/rtos/freertos/freertos-kernel/timers.c.obj
 .bss.xActiveTimerList2
                0x00000000200001c8       0x14 CMakeFiles/freertos_hello.elf.dir/project/sdk/rtos/freertos/freertos-kernel/timers.c.obj
 .bss.pxCurrentTimerList
                0x00000000200001dc        0x4 CMakeFiles/freertos_hello.elf.dir/project/sdk/rtos/freertos/freertos-kernel/timers.c.obj
 .bss.pxOverflowTimerList
                0x00000000200001e0        0x4 CMakeFiles/freertos_hello.elf.dir/project/sdk/rtos/freertos/freertos-kernel/timers.c.obj
 .bss.xTimerQueue
                0x00000000200001e4        0x4 CMakeFiles/freertos_hello.elf.dir/project/sdk/rtos/freertos/freertos-kernel/timers.c.obj
 .bss.xTimerTaskHandle
                0x00000000200001e8        0x4 CMakeFiles/freertos_hello.elf.dir/project/sdk/rtos/freertos/freertos-kernel/timers.c.obj
 .bss.xLastTime.0
                0x00000000200001ec        0x4 CMakeFiles/freertos_hello.elf.dir/project/sdk/rtos/freertos/freertos-kernel/timers.c.obj
 .bss.ucHeap    0x00000000200001f0     0x2800 CMakeFiles/freertos_hello.elf.dir/project/sdk/rtos/freertos/freertos-kernel/portable/MemMang/heap_4.c.obj
 .bss.xStart    0x00000000200029f0        0x8 CMakeFiles/freertos_hello.elf.dir/project/sdk/rtos/freertos/freertos-kernel/portable/MemMang/heap_4.c.obj
 .bss.pxEnd     0x00000000200029f8        0x4 CMakeFiles/freertos_hello.elf.dir/project/sdk/rtos/freertos/freertos-kernel/portable/MemMang/heap_4.c.obj
 .bss.xFreeBytesRemaining
                0x00000000200029fc        0x4 CMakeFiles/freertos_hello.elf.dir/project/sdk/rtos/freertos/freertos-kernel/portable/MemMang/heap_4.c.obj
 .bss.xMinimumEverFreeBytesRemaining
                0x0000000020002a00        0x4 CMakeFiles/freertos_hello.elf.dir/project/sdk/rtos/freertos/freertos-kernel/portable/MemMang/heap_4.c.obj
 .bss.xNumberOfSuccessfulAllocations
                0x0000000020002a04        0x4 CMakeFiles/freertos_hello.elf.dir/project/sdk/rtos/freertos/freertos-kernel/portable/MemMang/heap_4.c.obj
 .bss.xNumberOfSuccessfulFrees
                0x0000000020002a08        0x4 CMakeFiles/freertos_hello.elf.dir/project/sdk/rtos/freertos/freertos-kernel/portable/MemMang/heap_4.c.obj
 .bss.s_debugConsoleState
                0x0000000020002a0c       0x20 CMakeFiles/freertos_hello.elf.dir/project/sdk/devices/LPC5536/utilities/debug_console/fsl_debug_console.c.obj
 .bss.g_serialHandle
                0x0000000020002a2c        0x4 CMakeFiles/freertos_hello.elf.dir/project/sdk/devices/LPC5536/utilities/debug_console/fsl_debug_console.c.obj
                0x0000000020002a2c                g_serialHandle
 .bss.__stdio_exit_handler
                0x0000000020002a30        0x4 /opt/arm/arm-gnu-toolchain-12.2.rel1-x86_64-arm-none-eabi/bin/../lib/gcc/arm-none-eabi/12.2.1/../../../../arm-none-eabi/lib/thumb/v8-m.main+fp/hard/libc_nano.a(libc_a-findfp.o)
                0x0000000020002a30                __stdio_exit_handler
 *(COMMON)
                0x0000000020002a34                . = ALIGN (0x4)
                0x0000000020002a34                __bss_end__ = .
                0x0000000020002a34                __END_BSS = .

.heap           0x0000000020002a34      0x404 load address 0x00000000000077a0
                0x0000000020002a38                . = ALIGN (0x8)
 *fill*         0x0000000020002a34        0x4 
                0x0000000020002a38                __end__ = .
                0x0000000020002a38                PROVIDE (end = .)
                0x0000000020002a38                __HeapBase = .
                0x0000000020002e38                . = (. + HEAP_SIZE)
 *fill*         0x0000000020002a38      0x400 
                0x0000000020002e38                __HeapLimit = .
                0x0000000020002e38                __heap_limit = .

.stack          0x0000000020002e38      0x800 load address 0x0000000000007ba4
                0x0000000020002e38                . = ALIGN (0x8)
                0x0000000020003638                . = (. + STACK_SIZE)
 *fill*         0x0000000020002e38      0x800 
                0x000000002001c000                __StackTop = (ORIGIN (m_data) + LENGTH (m_data))
                0x000000002001b800                __StackLimit = (__StackTop - STACK_SIZE)
                0x000000002001c000                PROVIDE (__stack = __StackTop)

.ARM.attributes
                0x0000000000000000       0x36
 *(.ARM.attributes)
 .ARM.attributes
                0x0000000000000000       0x26 /opt/arm/arm-gnu-toolchain-12.2.rel1-x86_64-arm-none-eabi/bin/../lib/gcc/arm-none-eabi/12.2.1/thumb/v8-m.main+fp/hard/crti.o
 .ARM.attributes
                0x0000000000000026       0x38 /opt/arm/arm-gnu-toolchain-12.2.rel1-x86_64-arm-none-eabi/bin/../lib/gcc/arm-none-eabi/12.2.1/thumb/v8-m.main+fp/hard/crtbegin.o
 .ARM.attributes
                0x000000000000005e       0x24 /opt/arm/arm-gnu-toolchain-12.2.rel1-x86_64-arm-none-eabi/bin/../lib/gcc/arm-none-eabi/12.2.1/../../../../arm-none-eabi/lib/thumb/v8-m.main+fp/hard/crt0.o
 .ARM.attributes
                0x0000000000000082       0x3a CMakeFiles/freertos_hello.elf.dir/project/src/freertos_hello.c.obj
 .ARM.attributes
                0x00000000000000bc       0x3a CMakeFiles/freertos_hello.elf.dir/project/board/clock_config.c.obj
 .ARM.attributes
                0x00000000000000f6       0x3a CMakeFiles/freertos_hello.elf.dir/project/board/pin_mux.c.obj
 .ARM.attributes
                0x0000000000000130       0x3a CMakeFiles/freertos_hello.elf.dir/project/sdk/components/serial_manager/fsl_component_serial_manager.c.obj
 .ARM.attributes
                0x000000000000016a       0x3a CMakeFiles/freertos_hello.elf.dir/project/sdk/components/serial_manager/fsl_component_serial_port_uart.c.obj
 .ARM.attributes
                0x00000000000001a4       0x3a CMakeFiles/freertos_hello.elf.dir/project/sdk/components/uart/fsl_adapter_usart.c.obj
 .ARM.attributes
                0x00000000000001de       0x24 CMakeFiles/freertos_hello.elf.dir/project/sdk/devices/LPC5536/gcc/startup_LPC5536.S.obj
 .ARM.attributes
                0x0000000000000202       0x3a CMakeFiles/freertos_hello.elf.dir/project/sdk/devices/LPC5536/system_LPC5536.c.obj
 .ARM.attributes
                0x000000000000023c       0x3a CMakeFiles/freertos_hello.elf.dir/project/sdk/devices/LPC5536/drivers/fsl_clock.c.obj
 .ARM.attributes
                0x0000000000000276       0x3a CMakeFiles/freertos_hello.elf.dir/project/sdk/devices/LPC5536/drivers/fsl_flexcomm.c.obj
 .ARM.attributes
                0x00000000000002b0       0x3a CMakeFiles/freertos_hello.elf.dir/project/sdk/devices/LPC5536/drivers/fsl_usart.c.obj
 .ARM.attributes
                0x00000000000002ea       0x3a CMakeFiles/freertos_hello.elf.dir/project/sdk/devices/LPC5536/drivers/fsl_gpio.c.obj
 .ARM.attributes
                0x0000000000000324       0x3a CMakeFiles/freertos_hello.elf.dir/project/sdk/devices/LPC5536/drivers/fsl_power.c.obj
 .ARM.attributes
                0x000000000000035e       0x3a CMakeFiles/freertos_hello.elf.dir/project/sdk/rtos/freertos/freertos-kernel/list.c.obj
 .ARM.attributes
                0x0000000000000398       0x3a CMakeFiles/freertos_hello.elf.dir/project/sdk/rtos/freertos/freertos-kernel/queue.c.obj
 .ARM.attributes
                0x00000000000003d2       0x3a CMakeFiles/freertos_hello.elf.dir/project/sdk/rtos/freertos/freertos-kernel/tasks.c.obj
 .ARM.attributes
                0x000000000000040c       0x3a CMakeFiles/freertos_hello.elf.dir/project/sdk/rtos/freertos/freertos-kernel/timers.c.obj
 .ARM.attributes
                0x0000000000000446       0x3a CMakeFiles/freertos_hello.elf.dir/project/sdk/rtos/freertos/freertos-kernel/portable/GCC/ARM_CM33_NTZ/non_secure/port.c.obj
 .ARM.attributes
                0x0000000000000480       0x3a CMakeFiles/freertos_hello.elf.dir/project/sdk/rtos/freertos/freertos-kernel/portable/GCC/ARM_CM33_NTZ/non_secure/portasm.c.obj
 .ARM.attributes
                0x00000000000004ba       0x3a CMakeFiles/freertos_hello.elf.dir/project/sdk/rtos/freertos/freertos-kernel/portable/MemMang/heap_4.c.obj
 .ARM.attributes
                0x00000000000004f4       0x26 CMakeFiles/freertos_hello.elf.dir/project/sdk/devices/LPC5536/utilities/fsl_memcpy.S.obj
 .ARM.attributes
                0x000000000000051a       0x3a CMakeFiles/freertos_hello.elf.dir/project/sdk/devices/LPC5536/utilities/fsl_assert.c.obj
 .ARM.attributes
                0x0000000000000554       0x3a CMakeFiles/freertos_hello.elf.dir/project/sdk/devices/LPC5536/utilities/str/fsl_str.c.obj
 .ARM.attributes
                0x000000000000058e       0x3a CMakeFiles/freertos_hello.elf.dir/project/sdk/devices/LPC5536/utilities/debug_console/fsl_debug_console.c.obj
 .ARM.attributes
                0x00000000000005c8       0x38 /opt/arm/arm-gnu-toolchain-12.2.rel1-x86_64-arm-none-eabi/bin/../lib/gcc/arm-none-eabi/12.2.1/../../../../arm-none-eabi/lib/thumb/v8-m.main+fp/hard/libc_nano.a(libc_a-exit.o)
 .ARM.attributes
                0x0000000000000600       0x38 /opt/arm/arm-gnu-toolchain-12.2.rel1-x86_64-arm-none-eabi/bin/../lib/gcc/arm-none-eabi/12.2.1/../../../../arm-none-eabi/lib/thumb/v8-m.main+fp/hard/libc_nano.a(libc_a-init.o)
 .ARM.attributes
                0x0000000000000638       0x38 /opt/arm/arm-gnu-toolchain-12.2.rel1-x86_64-arm-none-eabi/bin/../lib/gcc/arm-none-eabi/12.2.1/../../../../arm-none-eabi/lib/thumb/v8-m.main+fp/hard/libc_nano.a(libc_a-findfp.o)
 .ARM.attributes
                0x0000000000000670       0x17 /opt/arm/arm-gnu-toolchain-12.2.rel1-x86_64-arm-none-eabi/bin/../lib/gcc/arm-none-eabi/12.2.1/../../../../arm-none-eabi/lib/thumb/v8-m.main+fp/hard/libc_nano.a(libc_a-strlen.o)
 .ARM.attributes
                0x0000000000000687       0x38 /opt/arm/arm-gnu-toolchain-12.2.rel1-x86_64-arm-none-eabi/bin/../lib/gcc/arm-none-eabi/12.2.1/../../../../arm-none-eabi/lib/thumb/v8-m.main+fp/hard/libc_nano.a(libc_a-memset.o)
 .ARM.attributes
                0x00000000000006bf       0x38 /opt/arm/arm-gnu-toolchain-12.2.rel1-x86_64-arm-none-eabi/bin/../lib/gcc/arm-none-eabi/12.2.1/../../../../arm-none-eabi/lib/thumb/v8-m.main+fp/hard/libcr_newlib_nohost.a(_exit.o)
 .ARM.attributes
                0x00000000000006f7       0x38 /opt/arm/arm-gnu-toolchain-12.2.rel1-x86_64-arm-none-eabi/bin/../lib/gcc/arm-none-eabi/12.2.1/thumb/v8-m.main+fp/hard/crtend.o
 .ARM.attributes
                0x000000000000072f       0x26 /opt/arm/arm-gnu-toolchain-12.2.rel1-x86_64-arm-none-eabi/bin/../lib/gcc/arm-none-eabi/12.2.1/thumb/v8-m.main+fp/hard/crtn.o
                0x0000000000000001                ASSERT ((__StackLimit >= __HeapLimit), region m_data overflowed with stack and heap)
OUTPUT(debug/freertos_hello.elf elf32-littlearm)
LOAD linker stubs

.debug_line_str
                0x0000000000000000      0x23f
 .debug_line_str
                0x0000000000000000       0xe0 /opt/arm/arm-gnu-toolchain-12.2.rel1-x86_64-arm-none-eabi/bin/../lib/gcc/arm-none-eabi/12.2.1/../../../../arm-none-eabi/lib/thumb/v8-m.main+fp/hard/crt0.o
 .debug_line_str
                0x00000000000000e0       0x43 CMakeFiles/freertos_hello.elf.dir/project/sdk/devices/LPC5536/gcc/startup_LPC5536.S.obj
 .debug_line_str
                0x0000000000000123       0x34 CMakeFiles/freertos_hello.elf.dir/project/sdk/devices/LPC5536/utilities/fsl_memcpy.S.obj
                                         0x44 (size before relaxing)
 .debug_line_str
                0x0000000000000157       0xe8 /opt/arm/arm-gnu-toolchain-12.2.rel1-x86_64-arm-none-eabi/bin/../lib/gcc/arm-none-eabi/12.2.1/../../../../arm-none-eabi/lib/thumb/v8-m.main+fp/hard/libc_nano.a(libc_a-strlen.o)

.debug_info     0x0000000000000000    0x19127
 .debug_info    0x0000000000000000      0xce0 CMakeFiles/freertos_hello.elf.dir/project/src/freertos_hello.c.obj
 .debug_info    0x0000000000000ce0      0xde2 CMakeFiles/freertos_hello.elf.dir/project/board/clock_config.c.obj
 .debug_info    0x0000000000001ac2     0x146e CMakeFiles/freertos_hello.elf.dir/project/board/pin_mux.c.obj
 .debug_info    0x0000000000002f30      0xda9 CMakeFiles/freertos_hello.elf.dir/project/sdk/components/serial_manager/fsl_component_serial_manager.c.obj
 .debug_info    0x0000000000003cd9      0x51b CMakeFiles/freertos_hello.elf.dir/project/sdk/components/serial_manager/fsl_component_serial_port_uart.c.obj
 .debug_info    0x00000000000041f4      0xe46 CMakeFiles/freertos_hello.elf.dir/project/sdk/components/uart/fsl_adapter_usart.c.obj
 .debug_info    0x000000000000503a      0x9ff CMakeFiles/freertos_hello.elf.dir/project/sdk/devices/LPC5536/gcc/startup_LPC5536.S.obj
 .debug_info    0x0000000000005a39     0x11bc CMakeFiles/freertos_hello.elf.dir/project/sdk/devices/LPC5536/system_LPC5536.c.obj
 .debug_info    0x0000000000006bf5     0x3b1c CMakeFiles/freertos_hello.elf.dir/project/sdk/devices/LPC5536/drivers/fsl_clock.c.obj
 .debug_info    0x000000000000a711     0x1ff4 CMakeFiles/freertos_hello.elf.dir/project/sdk/devices/LPC5536/drivers/fsl_flexcomm.c.obj
 .debug_info    0x000000000000c705     0x1d5a CMakeFiles/freertos_hello.elf.dir/project/sdk/devices/LPC5536/drivers/fsl_usart.c.obj
 .debug_info    0x000000000000e45f     0x1b2b CMakeFiles/freertos_hello.elf.dir/project/sdk/devices/LPC5536/drivers/fsl_gpio.c.obj
 .debug_info    0x000000000000ff8a     0x2d4c CMakeFiles/freertos_hello.elf.dir/project/sdk/devices/LPC5536/drivers/fsl_power.c.obj
 .debug_info    0x0000000000012cd6      0x298 CMakeFiles/freertos_hello.elf.dir/project/sdk/rtos/freertos/freertos-kernel/list.c.obj
 .debug_info    0x0000000000012f6e     0x1279 CMakeFiles/freertos_hello.elf.dir/project/sdk/rtos/freertos/freertos-kernel/queue.c.obj
 .debug_info    0x00000000000141e7     0x1e20 CMakeFiles/freertos_hello.elf.dir/project/sdk/rtos/freertos/freertos-kernel/tasks.c.obj
 .debug_info    0x0000000000016007      0xe1f CMakeFiles/freertos_hello.elf.dir/project/sdk/rtos/freertos/freertos-kernel/timers.c.obj
 .debug_info    0x0000000000016e26      0x2db CMakeFiles/freertos_hello.elf.dir/project/sdk/rtos/freertos/freertos-kernel/portable/GCC/ARM_CM33_NTZ/non_secure/port.c.obj
 .debug_info    0x0000000000017101      0x137 CMakeFiles/freertos_hello.elf.dir/project/sdk/rtos/freertos/freertos-kernel/portable/GCC/ARM_CM33_NTZ/non_secure/portasm.c.obj
 .debug_info    0x0000000000017238      0x483 CMakeFiles/freertos_hello.elf.dir/project/sdk/rtos/freertos/freertos-kernel/portable/MemMang/heap_4.c.obj
 .debug_info    0x00000000000176bb       0x25 CMakeFiles/freertos_hello.elf.dir/project/sdk/devices/LPC5536/utilities/fsl_memcpy.S.obj
 .debug_info    0x00000000000176e0       0xe4 CMakeFiles/freertos_hello.elf.dir/project/sdk/devices/LPC5536/utilities/fsl_assert.c.obj
 .debug_info    0x00000000000177c4      0xaf5 CMakeFiles/freertos_hello.elf.dir/project/sdk/devices/LPC5536/utilities/str/fsl_str.c.obj
 .debug_info    0x00000000000182b9      0xe0c CMakeFiles/freertos_hello.elf.dir/project/sdk/devices/LPC5536/utilities/debug_console/fsl_debug_console.c.obj
 .debug_info    0x00000000000190c5       0x62 /opt/arm/arm-gnu-toolchain-12.2.rel1-x86_64-arm-none-eabi/bin/../lib/gcc/arm-none-eabi/12.2.1/../../../../arm-none-eabi/lib/thumb/v8-m.main+fp/hard/libcr_newlib_nohost.a(_exit.o)

.debug_abbrev   0x0000000000000000     0x318c
 .debug_abbrev  0x0000000000000000      0x1fb CMakeFiles/freertos_hello.elf.dir/project/src/freertos_hello.c.obj
 .debug_abbrev  0x00000000000001fb      0x189 CMakeFiles/freertos_hello.elf.dir/project/board/clock_config.c.obj
 .debug_abbrev  0x0000000000000384      0x1ef CMakeFiles/freertos_hello.elf.dir/project/board/pin_mux.c.obj
 .debug_abbrev  0x0000000000000573      0x2c2 CMakeFiles/freertos_hello.elf.dir/project/sdk/components/serial_manager/fsl_component_serial_manager.c.obj
 .debug_abbrev  0x0000000000000835      0x194 CMakeFiles/freertos_hello.elf.dir/project/sdk/components/serial_manager/fsl_component_serial_port_uart.c.obj
 .debug_abbrev  0x00000000000009c9      0x25e CMakeFiles/freertos_hello.elf.dir/project/sdk/components/uart/fsl_adapter_usart.c.obj
 .debug_abbrev  0x0000000000000c27       0x1f CMakeFiles/freertos_hello.elf.dir/project/sdk/devices/LPC5536/gcc/startup_LPC5536.S.obj
 .debug_abbrev  0x0000000000000c46      0x136 CMakeFiles/freertos_hello.elf.dir/project/sdk/devices/LPC5536/system_LPC5536.c.obj
 .debug_abbrev  0x0000000000000d7c      0x3a6 CMakeFiles/freertos_hello.elf.dir/project/sdk/devices/LPC5536/drivers/fsl_clock.c.obj
 .debug_abbrev  0x0000000000001122      0x2f5 CMakeFiles/freertos_hello.elf.dir/project/sdk/devices/LPC5536/drivers/fsl_flexcomm.c.obj
 .debug_abbrev  0x0000000000001417      0x380 CMakeFiles/freertos_hello.elf.dir/project/sdk/devices/LPC5536/drivers/fsl_usart.c.obj
 .debug_abbrev  0x0000000000001797      0x246 CMakeFiles/freertos_hello.elf.dir/project/sdk/devices/LPC5536/drivers/fsl_gpio.c.obj
 .debug_abbrev  0x00000000000019dd      0x384 CMakeFiles/freertos_hello.elf.dir/project/sdk/devices/LPC5536/drivers/fsl_power.c.obj
 .debug_abbrev  0x0000000000001d61       0xf3 CMakeFiles/freertos_hello.elf.dir/project/sdk/rtos/freertos/freertos-kernel/list.c.obj
 .debug_abbrev  0x0000000000001e54      0x2c7 CMakeFiles/freertos_hello.elf.dir/project/sdk/rtos/freertos/freertos-kernel/queue.c.obj
 .debug_abbrev  0x000000000000211b      0x354 CMakeFiles/freertos_hello.elf.dir/project/sdk/rtos/freertos/freertos-kernel/tasks.c.obj
 .debug_abbrev  0x000000000000246f      0x2c5 CMakeFiles/freertos_hello.elf.dir/project/sdk/rtos/freertos/freertos-kernel/timers.c.obj
 .debug_abbrev  0x0000000000002734      0x1ba CMakeFiles/freertos_hello.elf.dir/project/sdk/rtos/freertos/freertos-kernel/portable/GCC/ARM_CM33_NTZ/non_secure/port.c.obj
 .debug_abbrev  0x00000000000028ee       0xb5 CMakeFiles/freertos_hello.elf.dir/project/sdk/rtos/freertos/freertos-kernel/portable/GCC/ARM_CM33_NTZ/non_secure/portasm.c.obj
 .debug_abbrev  0x00000000000029a3      0x206 CMakeFiles/freertos_hello.elf.dir/project/sdk/rtos/freertos/freertos-kernel/portable/MemMang/heap_4.c.obj
 .debug_abbrev  0x0000000000002ba9       0x14 CMakeFiles/freertos_hello.elf.dir/project/sdk/devices/LPC5536/utilities/fsl_memcpy.S.obj
 .debug_abbrev  0x0000000000002bbd       0x8c CMakeFiles/freertos_hello.elf.dir/project/sdk/devices/LPC5536/utilities/fsl_assert.c.obj
 .debug_abbrev  0x0000000000002c49      0x26f CMakeFiles/freertos_hello.elf.dir/project/sdk/devices/LPC5536/utilities/str/fsl_str.c.obj
 .debug_abbrev  0x0000000000002eb8      0x277 CMakeFiles/freertos_hello.elf.dir/project/sdk/devices/LPC5536/utilities/debug_console/fsl_debug_console.c.obj
 .debug_abbrev  0x000000000000312f       0x5d /opt/arm/arm-gnu-toolchain-12.2.rel1-x86_64-arm-none-eabi/bin/../lib/gcc/arm-none-eabi/12.2.1/../../../../arm-none-eabi/lib/thumb/v8-m.main+fp/hard/libcr_newlib_nohost.a(_exit.o)

.debug_aranges  0x0000000000000000      0xee0
 .debug_aranges
                0x0000000000000000       0x30 CMakeFiles/freertos_hello.elf.dir/project/src/freertos_hello.c.obj
 .debug_aranges
                0x0000000000000030       0x30 CMakeFiles/freertos_hello.elf.dir/project/board/clock_config.c.obj
 .debug_aranges
                0x0000000000000060       0x30 CMakeFiles/freertos_hello.elf.dir/project/board/pin_mux.c.obj
 .debug_aranges
                0x0000000000000090       0xa0 CMakeFiles/freertos_hello.elf.dir/project/sdk/components/serial_manager/fsl_component_serial_manager.c.obj
 .debug_aranges
                0x0000000000000130       0x48 CMakeFiles/freertos_hello.elf.dir/project/sdk/components/serial_manager/fsl_component_serial_port_uart.c.obj
 .debug_aranges
                0x0000000000000178       0x58 CMakeFiles/freertos_hello.elf.dir/project/sdk/components/uart/fsl_adapter_usart.c.obj
 .debug_aranges
                0x00000000000001d0       0x20 CMakeFiles/freertos_hello.elf.dir/project/sdk/devices/LPC5536/gcc/startup_LPC5536.S.obj
 .debug_aranges
                0x00000000000001f0       0x30 CMakeFiles/freertos_hello.elf.dir/project/sdk/devices/LPC5536/system_LPC5536.c.obj
 .debug_aranges
                0x0000000000000220      0x270 CMakeFiles/freertos_hello.elf.dir/project/sdk/devices/LPC5536/drivers/fsl_clock.c.obj
 .debug_aranges
                0x0000000000000490       0x90 CMakeFiles/freertos_hello.elf.dir/project/sdk/devices/LPC5536/drivers/fsl_flexcomm.c.obj
 .debug_aranges
                0x0000000000000520      0x108 CMakeFiles/freertos_hello.elf.dir/project/sdk/devices/LPC5536/drivers/fsl_usart.c.obj
 .debug_aranges
                0x0000000000000628       0x38 CMakeFiles/freertos_hello.elf.dir/project/sdk/devices/LPC5536/drivers/fsl_gpio.c.obj
 .debug_aranges
                0x0000000000000660      0x118 CMakeFiles/freertos_hello.elf.dir/project/sdk/devices/LPC5536/drivers/fsl_power.c.obj
 .debug_aranges
                0x0000000000000778       0x40 CMakeFiles/freertos_hello.elf.dir/project/sdk/rtos/freertos/freertos-kernel/list.c.obj
 .debug_aranges
                0x00000000000007b8      0x130 CMakeFiles/freertos_hello.elf.dir/project/sdk/rtos/freertos/freertos-kernel/queue.c.obj
 .debug_aranges
                0x00000000000008e8      0x208 CMakeFiles/freertos_hello.elf.dir/project/sdk/rtos/freertos/freertos-kernel/tasks.c.obj
 .debug_aranges
                0x0000000000000af0       0xf8 CMakeFiles/freertos_hello.elf.dir/project/sdk/rtos/freertos/freertos-kernel/timers.c.obj
 .debug_aranges
                0x0000000000000be8       0x78 CMakeFiles/freertos_hello.elf.dir/project/sdk/rtos/freertos/freertos-kernel/portable/GCC/ARM_CM33_NTZ/non_secure/port.c.obj
 .debug_aranges
                0x0000000000000c60       0x60 CMakeFiles/freertos_hello.elf.dir/project/sdk/rtos/freertos/freertos-kernel/portable/GCC/ARM_CM33_NTZ/non_secure/portasm.c.obj
 .debug_aranges
                0x0000000000000cc0       0x60 CMakeFiles/freertos_hello.elf.dir/project/sdk/rtos/freertos/freertos-kernel/portable/MemMang/heap_4.c.obj
 .debug_aranges
                0x0000000000000d20       0x20 CMakeFiles/freertos_hello.elf.dir/project/sdk/devices/LPC5536/utilities/fsl_memcpy.S.obj
 .debug_aranges
                0x0000000000000d40       0x20 CMakeFiles/freertos_hello.elf.dir/project/sdk/devices/LPC5536/utilities/fsl_assert.c.obj
 .debug_aranges
                0x0000000000000d60       0xb8 CMakeFiles/freertos_hello.elf.dir/project/sdk/devices/LPC5536/utilities/str/fsl_str.c.obj
 .debug_aranges
                0x0000000000000e18       0xa8 CMakeFiles/freertos_hello.elf.dir/project/sdk/devices/LPC5536/utilities/debug_console/fsl_debug_console.c.obj
 .debug_aranges
                0x0000000000000ec0       0x20 /opt/arm/arm-gnu-toolchain-12.2.rel1-x86_64-arm-none-eabi/bin/../lib/gcc/arm-none-eabi/12.2.1/../../../../arm-none-eabi/lib/thumb/v8-m.main+fp/hard/libcr_newlib_nohost.a(_exit.o)

.debug_rnglists
                0x0000000000000000      0xb35
 .debug_rnglists
                0x0000000000000000       0x1f CMakeFiles/freertos_hello.elf.dir/project/src/freertos_hello.c.obj
 .debug_rnglists
                0x000000000000001f       0x1f CMakeFiles/freertos_hello.elf.dir/project/board/clock_config.c.obj
 .debug_rnglists
                0x000000000000003e       0x20 CMakeFiles/freertos_hello.elf.dir/project/board/pin_mux.c.obj
 .debug_rnglists
                0x000000000000005e       0x73 CMakeFiles/freertos_hello.elf.dir/project/sdk/components/serial_manager/fsl_component_serial_manager.c.obj
 .debug_rnglists
                0x00000000000000d1       0x31 CMakeFiles/freertos_hello.elf.dir/project/sdk/components/serial_manager/fsl_component_serial_port_uart.c.obj
 .debug_rnglists
                0x0000000000000102       0x40 CMakeFiles/freertos_hello.elf.dir/project/sdk/components/uart/fsl_adapter_usart.c.obj
 .debug_rnglists
                0x0000000000000142       0x1f CMakeFiles/freertos_hello.elf.dir/project/sdk/devices/LPC5536/system_LPC5536.c.obj
 .debug_rnglists
                0x0000000000000161      0x1f0 CMakeFiles/freertos_hello.elf.dir/project/sdk/devices/LPC5536/drivers/fsl_clock.c.obj
 .debug_rnglists
                0x0000000000000351       0x68 CMakeFiles/freertos_hello.elf.dir/project/sdk/devices/LPC5536/drivers/fsl_flexcomm.c.obj
 .debug_rnglists
                0x00000000000003b9       0xcd CMakeFiles/freertos_hello.elf.dir/project/sdk/devices/LPC5536/drivers/fsl_usart.c.obj
 .debug_rnglists
                0x0000000000000486       0x27 CMakeFiles/freertos_hello.elf.dir/project/sdk/devices/LPC5536/drivers/fsl_gpio.c.obj
 .debug_rnglists
                0x00000000000004ad       0xef CMakeFiles/freertos_hello.elf.dir/project/sdk/devices/LPC5536/drivers/fsl_power.c.obj
 .debug_rnglists
                0x000000000000059c       0x2b CMakeFiles/freertos_hello.elf.dir/project/sdk/rtos/freertos/freertos-kernel/list.c.obj
 .debug_rnglists
                0x00000000000005c7       0xec CMakeFiles/freertos_hello.elf.dir/project/sdk/rtos/freertos/freertos-kernel/queue.c.obj
 .debug_rnglists
                0x00000000000006b3      0x1a0 CMakeFiles/freertos_hello.elf.dir/project/sdk/rtos/freertos/freertos-kernel/tasks.c.obj
 .debug_rnglists
                0x0000000000000853       0xb9 CMakeFiles/freertos_hello.elf.dir/project/sdk/rtos/freertos/freertos-kernel/timers.c.obj
 .debug_rnglists
                0x000000000000090c       0x56 CMakeFiles/freertos_hello.elf.dir/project/sdk/rtos/freertos/freertos-kernel/portable/GCC/ARM_CM33_NTZ/non_secure/port.c.obj
 .debug_rnglists
                0x0000000000000962       0x43 CMakeFiles/freertos_hello.elf.dir/project/sdk/rtos/freertos/freertos-kernel/portable/GCC/ARM_CM33_NTZ/non_secure/portasm.c.obj
 .debug_rnglists
                0x00000000000009a5       0x48 CMakeFiles/freertos_hello.elf.dir/project/sdk/rtos/freertos/freertos-kernel/portable/MemMang/heap_4.c.obj
 .debug_rnglists
                0x00000000000009ed       0x13 CMakeFiles/freertos_hello.elf.dir/project/sdk/devices/LPC5536/utilities/fsl_assert.c.obj
 .debug_rnglists
                0x0000000000000a00       0xa6 CMakeFiles/freertos_hello.elf.dir/project/sdk/devices/LPC5536/utilities/str/fsl_str.c.obj
 .debug_rnglists
                0x0000000000000aa6       0x7c CMakeFiles/freertos_hello.elf.dir/project/sdk/devices/LPC5536/utilities/debug_console/fsl_debug_console.c.obj
 .debug_rnglists
                0x0000000000000b22       0x13 /opt/arm/arm-gnu-toolchain-12.2.rel1-x86_64-arm-none-eabi/bin/../lib/gcc/arm-none-eabi/12.2.1/../../../../arm-none-eabi/lib/thumb/v8-m.main+fp/hard/libcr_newlib_nohost.a(_exit.o)

.debug_line     0x0000000000000000     0xaa00
 .debug_line    0x0000000000000000      0x2bd CMakeFiles/freertos_hello.elf.dir/project/src/freertos_hello.c.obj
 .debug_line    0x00000000000002bd      0x1ae CMakeFiles/freertos_hello.elf.dir/project/board/clock_config.c.obj
 .debug_line    0x000000000000046b      0x1c5 CMakeFiles/freertos_hello.elf.dir/project/board/pin_mux.c.obj
 .debug_line    0x0000000000000630      0x57e CMakeFiles/freertos_hello.elf.dir/project/sdk/components/serial_manager/fsl_component_serial_manager.c.obj
 .debug_line    0x0000000000000bae      0x25f CMakeFiles/freertos_hello.elf.dir/project/sdk/components/serial_manager/fsl_component_serial_port_uart.c.obj
 .debug_line    0x0000000000000e0d      0x390 CMakeFiles/freertos_hello.elf.dir/project/sdk/components/uart/fsl_adapter_usart.c.obj
 .debug_line    0x000000000000119d      0x301 CMakeFiles/freertos_hello.elf.dir/project/sdk/devices/LPC5536/gcc/startup_LPC5536.S.obj
 .debug_line    0x000000000000149e      0x17d CMakeFiles/freertos_hello.elf.dir/project/sdk/devices/LPC5536/system_LPC5536.c.obj
 .debug_line    0x000000000000161b     0x1a2a CMakeFiles/freertos_hello.elf.dir/project/sdk/devices/LPC5536/drivers/fsl_clock.c.obj
 .debug_line    0x0000000000003045      0x48e CMakeFiles/freertos_hello.elf.dir/project/sdk/devices/LPC5536/drivers/fsl_flexcomm.c.obj
 .debug_line    0x00000000000034d3      0xf2e CMakeFiles/freertos_hello.elf.dir/project/sdk/devices/LPC5536/drivers/fsl_usart.c.obj
 .debug_line    0x0000000000004401      0x270 CMakeFiles/freertos_hello.elf.dir/project/sdk/devices/LPC5536/drivers/fsl_gpio.c.obj
 .debug_line    0x0000000000004671     0x164f CMakeFiles/freertos_hello.elf.dir/project/sdk/devices/LPC5536/drivers/fsl_power.c.obj
 .debug_line    0x0000000000005cc0      0x280 CMakeFiles/freertos_hello.elf.dir/project/sdk/rtos/freertos/freertos-kernel/list.c.obj
 .debug_line    0x0000000000005f40      0xf3b CMakeFiles/freertos_hello.elf.dir/project/sdk/rtos/freertos/freertos-kernel/queue.c.obj
 .debug_line    0x0000000000006e7b     0x176b CMakeFiles/freertos_hello.elf.dir/project/sdk/rtos/freertos/freertos-kernel/tasks.c.obj
 .debug_line    0x00000000000085e6      0x7af CMakeFiles/freertos_hello.elf.dir/project/sdk/rtos/freertos/freertos-kernel/timers.c.obj
 .debug_line    0x0000000000008d95      0x3c6 CMakeFiles/freertos_hello.elf.dir/project/sdk/rtos/freertos/freertos-kernel/portable/GCC/ARM_CM33_NTZ/non_secure/port.c.obj
 .debug_line    0x000000000000915b      0x1ee CMakeFiles/freertos_hello.elf.dir/project/sdk/rtos/freertos/freertos-kernel/portable/GCC/ARM_CM33_NTZ/non_secure/portasm.c.obj
 .debug_line    0x0000000000009349      0x50d CMakeFiles/freertos_hello.elf.dir/project/sdk/rtos/freertos/freertos-kernel/portable/MemMang/heap_4.c.obj
 .debug_line    0x0000000000009856       0x88 CMakeFiles/freertos_hello.elf.dir/project/sdk/devices/LPC5536/utilities/fsl_memcpy.S.obj
 .debug_line    0x00000000000098de      0x117 CMakeFiles/freertos_hello.elf.dir/project/sdk/devices/LPC5536/utilities/fsl_assert.c.obj
 .debug_line    0x00000000000099f5      0x960 CMakeFiles/freertos_hello.elf.dir/project/sdk/devices/LPC5536/utilities/str/fsl_str.c.obj
 .debug_line    0x000000000000a355      0x65f CMakeFiles/freertos_hello.elf.dir/project/sdk/devices/LPC5536/utilities/debug_console/fsl_debug_console.c.obj
 .debug_line    0x000000000000a9b4       0x4c /opt/arm/arm-gnu-toolchain-12.2.rel1-x86_64-arm-none-eabi/bin/../lib/gcc/arm-none-eabi/12.2.1/../../../../arm-none-eabi/lib/thumb/v8-m.main+fp/hard/libcr_newlib_nohost.a(_exit.o)

.debug_str      0x0000000000000000     0xd3b2
 .debug_str     0x0000000000000000     0x199d CMakeFiles/freertos_hello.elf.dir/project/src/freertos_hello.c.obj
                                       0x19f0 (size before relaxing)
 .debug_str     0x000000000000199d      0x54e CMakeFiles/freertos_hello.elf.dir/project/board/clock_config.c.obj
                                       0x1dea (size before relaxing)
 .debug_str     0x0000000000001eeb     0x1063 CMakeFiles/freertos_hello.elf.dir/project/board/pin_mux.c.obj
                                       0x1363 (size before relaxing)
 .debug_str     0x0000000000002f4e     0x12cc CMakeFiles/freertos_hello.elf.dir/project/sdk/components/serial_manager/fsl_component_serial_manager.c.obj
                                       0x14d5 (size before relaxing)
 .debug_str     0x000000000000421a      0x38c CMakeFiles/freertos_hello.elf.dir/project/sdk/components/serial_manager/fsl_component_serial_port_uart.c.obj
                                        0x72c (size before relaxing)
 .debug_str     0x00000000000045a6      0x5af CMakeFiles/freertos_hello.elf.dir/project/sdk/components/uart/fsl_adapter_usart.c.obj
                                       0x160c (size before relaxing)
 .debug_str     0x0000000000004b55     0x1830 CMakeFiles/freertos_hello.elf.dir/project/sdk/devices/LPC5536/gcc/startup_LPC5536.S.obj
                                       0x1840 (size before relaxing)
 .debug_str     0x0000000000006385      0x180 CMakeFiles/freertos_hello.elf.dir/project/sdk/devices/LPC5536/system_LPC5536.c.obj
                                        0xce2 (size before relaxing)
 .debug_str     0x0000000000006505      0xf04 CMakeFiles/freertos_hello.elf.dir/project/sdk/devices/LPC5536/drivers/fsl_clock.c.obj
                                       0x478e (size before relaxing)
 .debug_str     0x0000000000007409     0x10f3 CMakeFiles/freertos_hello.elf.dir/project/sdk/devices/LPC5536/drivers/fsl_flexcomm.c.obj
                                       0x2f4b (size before relaxing)
 .debug_str     0x00000000000084fc      0x8b8 CMakeFiles/freertos_hello.elf.dir/project/sdk/devices/LPC5536/drivers/fsl_usart.c.obj
                                       0x2516 (size before relaxing)
 .debug_str     0x0000000000008db4       0x70 CMakeFiles/freertos_hello.elf.dir/project/sdk/devices/LPC5536/drivers/fsl_gpio.c.obj
                                       0x24d6 (size before relaxing)
 .debug_str     0x0000000000008e24     0x1bef CMakeFiles/freertos_hello.elf.dir/project/sdk/devices/LPC5536/drivers/fsl_power.c.obj
                                       0x2fee (size before relaxing)
 .debug_str     0x000000000000aa13      0x14f CMakeFiles/freertos_hello.elf.dir/project/sdk/rtos/freertos/freertos-kernel/list.c.obj
                                        0x311 (size before relaxing)
 .debug_str     0x000000000000ab62      0x870 CMakeFiles/freertos_hello.elf.dir/project/sdk/rtos/freertos/freertos-kernel/queue.c.obj
                                        0xb58 (size before relaxing)
 .debug_str     0x000000000000b3d2      0xc50 CMakeFiles/freertos_hello.elf.dir/project/sdk/rtos/freertos/freertos-kernel/tasks.c.obj
                                       0x123b (size before relaxing)
 .debug_str     0x000000000000c022      0x535 CMakeFiles/freertos_hello.elf.dir/project/sdk/rtos/freertos/freertos-kernel/timers.c.obj
                                        0x9ff (size before relaxing)
 .debug_str     0x000000000000c557      0x14b CMakeFiles/freertos_hello.elf.dir/project/sdk/rtos/freertos/freertos-kernel/portable/GCC/ARM_CM33_NTZ/non_secure/port.c.obj
                                        0x42c (size before relaxing)
 .debug_str     0x000000000000c6a2       0x8f CMakeFiles/freertos_hello.elf.dir/project/sdk/rtos/freertos/freertos-kernel/portable/GCC/ARM_CM33_NTZ/non_secure/portasm.c.obj
                                        0x2a2 (size before relaxing)
 .debug_str     0x000000000000c731      0x2d9 CMakeFiles/freertos_hello.elf.dir/project/sdk/rtos/freertos/freertos-kernel/portable/MemMang/heap_4.c.obj
                                        0x538 (size before relaxing)
 .debug_str     0x000000000000ca0a       0x34 CMakeFiles/freertos_hello.elf.dir/project/sdk/devices/LPC5536/utilities/fsl_memcpy.S.obj
                                         0x52 (size before relaxing)
 .debug_str     0x000000000000ca3e       0x44 CMakeFiles/freertos_hello.elf.dir/project/sdk/devices/LPC5536/utilities/fsl_assert.c.obj
                                        0x20b (size before relaxing)
 .debug_str     0x000000000000ca82      0x37f CMakeFiles/freertos_hello.elf.dir/project/sdk/devices/LPC5536/utilities/str/fsl_str.c.obj
                                        0x57d (size before relaxing)
 .debug_str     0x000000000000ce01      0x448 CMakeFiles/freertos_hello.elf.dir/project/sdk/devices/LPC5536/utilities/debug_console/fsl_debug_console.c.obj
                                       0x161a (size before relaxing)
 .debug_str     0x000000000000d249      0x169 /opt/arm/arm-gnu-toolchain-12.2.rel1-x86_64-arm-none-eabi/bin/../lib/gcc/arm-none-eabi/12.2.1/../../../../arm-none-eabi/lib/thumb/v8-m.main+fp/hard/libcr_newlib_nohost.a(_exit.o)

.comment        0x0000000000000000       0x45
 .comment       0x0000000000000000       0x45 CMakeFiles/freertos_hello.elf.dir/project/src/freertos_hello.c.obj
                                         0x46 (size before relaxing)
 .comment       0x0000000000000045       0x46 CMakeFiles/freertos_hello.elf.dir/project/board/clock_config.c.obj
 .comment       0x0000000000000045       0x46 CMakeFiles/freertos_hello.elf.dir/project/board/pin_mux.c.obj
 .comment       0x0000000000000045       0x46 CMakeFiles/freertos_hello.elf.dir/project/sdk/components/serial_manager/fsl_component_serial_manager.c.obj
 .comment       0x0000000000000045       0x46 CMakeFiles/freertos_hello.elf.dir/project/sdk/components/serial_manager/fsl_component_serial_port_uart.c.obj
 .comment       0x0000000000000045       0x46 CMakeFiles/freertos_hello.elf.dir/project/sdk/components/uart/fsl_adapter_usart.c.obj
 .comment       0x0000000000000045       0x46 CMakeFiles/freertos_hello.elf.dir/project/sdk/devices/LPC5536/system_LPC5536.c.obj
 .comment       0x0000000000000045       0x46 CMakeFiles/freertos_hello.elf.dir/project/sdk/devices/LPC5536/drivers/fsl_clock.c.obj
 .comment       0x0000000000000045       0x46 CMakeFiles/freertos_hello.elf.dir/project/sdk/devices/LPC5536/drivers/fsl_flexcomm.c.obj
 .comment       0x0000000000000045       0x46 CMakeFiles/freertos_hello.elf.dir/project/sdk/devices/LPC5536/drivers/fsl_usart.c.obj
 .comment       0x0000000000000045       0x46 CMakeFiles/freertos_hello.elf.dir/project/sdk/devices/LPC5536/drivers/fsl_gpio.c.obj
 .comment       0x0000000000000045       0x46 CMakeFiles/freertos_hello.elf.dir/project/sdk/devices/LPC5536/drivers/fsl_power.c.obj
 .comment       0x0000000000000045       0x46 CMakeFiles/freertos_hello.elf.dir/project/sdk/rtos/freertos/freertos-kernel/list.c.obj
 .comment       0x0000000000000045       0x46 CMakeFiles/freertos_hello.elf.dir/project/sdk/rtos/freertos/freertos-kernel/queue.c.obj
 .comment       0x0000000000000045       0x46 CMakeFiles/freertos_hello.elf.dir/project/sdk/rtos/freertos/freertos-kernel/tasks.c.obj
 .comment       0x0000000000000045       0x46 CMakeFiles/freertos_hello.elf.dir/project/sdk/rtos/freertos/freertos-kernel/timers.c.obj
 .comment       0x0000000000000045       0x46 CMakeFiles/freertos_hello.elf.dir/project/sdk/rtos/freertos/freertos-kernel/portable/GCC/ARM_CM33_NTZ/non_secure/port.c.obj
 .comment       0x0000000000000045       0x46 CMakeFiles/freertos_hello.elf.dir/project/sdk/rtos/freertos/freertos-kernel/portable/GCC/ARM_CM33_NTZ/non_secure/portasm.c.obj
 .comment       0x0000000000000045       0x46 CMakeFiles/freertos_hello.elf.dir/project/sdk/rtos/freertos/freertos-kernel/portable/MemMang/heap_4.c.obj
 .comment       0x0000000000000045       0x46 CMakeFiles/freertos_hello.elf.dir/project/sdk/devices/LPC5536/utilities/fsl_assert.c.obj
 .comment       0x0000000000000045       0x46 CMakeFiles/freertos_hello.elf.dir/project/sdk/devices/LPC5536/utilities/str/fsl_str.c.obj
 .comment       0x0000000000000045       0x46 CMakeFiles/freertos_hello.elf.dir/project/sdk/devices/LPC5536/utilities/debug_console/fsl_debug_console.c.obj
 .comment       0x0000000000000045       0x46 /opt/arm/arm-gnu-toolchain-12.2.rel1-x86_64-arm-none-eabi/bin/../lib/gcc/arm-none-eabi/12.2.1/../../../../arm-none-eabi/lib/thumb/v8-m.main+fp/hard/libcr_newlib_nohost.a(_exit.o)

.debug_frame    0x0000000000000000     0x3bac
 .debug_frame   0x0000000000000000       0x78 CMakeFiles/freertos_hello.elf.dir/project/src/freertos_hello.c.obj
 .debug_frame   0x0000000000000078       0x70 CMakeFiles/freertos_hello.elf.dir/project/board/clock_config.c.obj
 .debug_frame   0x00000000000000e8       0x78 CMakeFiles/freertos_hello.elf.dir/project/board/pin_mux.c.obj
 .debug_frame   0x0000000000000160      0x280 CMakeFiles/freertos_hello.elf.dir/project/sdk/components/serial_manager/fsl_component_serial_manager.c.obj
 .debug_frame   0x00000000000003e0       0xe8 CMakeFiles/freertos_hello.elf.dir/project/sdk/components/serial_manager/fsl_component_serial_port_uart.c.obj
 .debug_frame   0x00000000000004c8      0x138 CMakeFiles/freertos_hello.elf.dir/project/sdk/components/uart/fsl_adapter_usart.c.obj
 .debug_frame   0x0000000000000600       0x6c CMakeFiles/freertos_hello.elf.dir/project/sdk/devices/LPC5536/system_LPC5536.c.obj
 .debug_frame   0x000000000000066c      0xae0 CMakeFiles/freertos_hello.elf.dir/project/sdk/devices/LPC5536/drivers/fsl_clock.c.obj
 .debug_frame   0x000000000000114c      0x234 CMakeFiles/freertos_hello.elf.dir/project/sdk/devices/LPC5536/drivers/fsl_flexcomm.c.obj
 .debug_frame   0x0000000000001380      0x46c CMakeFiles/freertos_hello.elf.dir/project/sdk/devices/LPC5536/drivers/fsl_usart.c.obj
 .debug_frame   0x00000000000017ec       0xa4 CMakeFiles/freertos_hello.elf.dir/project/sdk/devices/LPC5536/drivers/fsl_gpio.c.obj
 .debug_frame   0x0000000000001890      0x4c8 CMakeFiles/freertos_hello.elf.dir/project/sdk/devices/LPC5536/drivers/fsl_power.c.obj
 .debug_frame   0x0000000000001d58       0xd8 CMakeFiles/freertos_hello.elf.dir/project/sdk/rtos/freertos/freertos-kernel/list.c.obj
 .debug_frame   0x0000000000001e30      0x518 CMakeFiles/freertos_hello.elf.dir/project/sdk/rtos/freertos/freertos-kernel/queue.c.obj
 .debug_frame   0x0000000000002348      0x8d8 CMakeFiles/freertos_hello.elf.dir/project/sdk/rtos/freertos/freertos-kernel/tasks.c.obj
 .debug_frame   0x0000000000002c20      0x3f8 CMakeFiles/freertos_hello.elf.dir/project/sdk/rtos/freertos/freertos-kernel/timers.c.obj
 .debug_frame   0x0000000000003018      0x19c CMakeFiles/freertos_hello.elf.dir/project/sdk/rtos/freertos/freertos-kernel/portable/GCC/ARM_CM33_NTZ/non_secure/port.c.obj
 .debug_frame   0x00000000000031b4       0xa0 CMakeFiles/freertos_hello.elf.dir/project/sdk/rtos/freertos/freertos-kernel/portable/GCC/ARM_CM33_NTZ/non_secure/portasm.c.obj
 .debug_frame   0x0000000000003254      0x150 CMakeFiles/freertos_hello.elf.dir/project/sdk/rtos/freertos/freertos-kernel/portable/MemMang/heap_4.c.obj
 .debug_frame   0x00000000000033a4       0x30 CMakeFiles/freertos_hello.elf.dir/project/sdk/devices/LPC5536/utilities/fsl_assert.c.obj
 .debug_frame   0x00000000000033d4      0x32c CMakeFiles/freertos_hello.elf.dir/project/sdk/devices/LPC5536/utilities/str/fsl_str.c.obj
 .debug_frame   0x0000000000003700      0x2d4 CMakeFiles/freertos_hello.elf.dir/project/sdk/devices/LPC5536/utilities/debug_console/fsl_debug_console.c.obj
 .debug_frame   0x00000000000039d4       0x28 /opt/arm/arm-gnu-toolchain-12.2.rel1-x86_64-arm-none-eabi/bin/../lib/gcc/arm-none-eabi/12.2.1/../../../../arm-none-eabi/lib/thumb/v8-m.main+fp/hard/libc_nano.a(libc_a-exit.o)
 .debug_frame   0x00000000000039fc       0x2c /opt/arm/arm-gnu-toolchain-12.2.rel1-x86_64-arm-none-eabi/bin/../lib/gcc/arm-none-eabi/12.2.1/../../../../arm-none-eabi/lib/thumb/v8-m.main+fp/hard/libc_nano.a(libc_a-init.o)
 .debug_frame   0x0000000000003a28      0x144 /opt/arm/arm-gnu-toolchain-12.2.rel1-x86_64-arm-none-eabi/bin/../lib/gcc/arm-none-eabi/12.2.1/../../../../arm-none-eabi/lib/thumb/v8-m.main+fp/hard/libc_nano.a(libc_a-findfp.o)
 .debug_frame   0x0000000000003b6c       0x20 /opt/arm/arm-gnu-toolchain-12.2.rel1-x86_64-arm-none-eabi/bin/../lib/gcc/arm-none-eabi/12.2.1/../../../../arm-none-eabi/lib/thumb/v8-m.main+fp/hard/libc_nano.a(libc_a-memset.o)
 .debug_frame   0x0000000000003b8c       0x20 /opt/arm/arm-gnu-toolchain-12.2.rel1-x86_64-arm-none-eabi/bin/../lib/gcc/arm-none-eabi/12.2.1/../../../../arm-none-eabi/lib/thumb/v8-m.main+fp/hard/libcr_newlib_nohost.a(_exit.o)

.debug_loclists
                0x0000000000000000       0x17
 .debug_loclists
                0x0000000000000000       0x17 /opt/arm/arm-gnu-toolchain-12.2.rel1-x86_64-arm-none-eabi/bin/../lib/gcc/arm-none-eabi/12.2.1/../../../../arm-none-eabi/lib/thumb/v8-m.main+fp/hard/libcr_newlib_nohost.a(_exit.o)
